(lp0
(VGGCTGCTTTACCCGCTGTGG
p1
cnumpy.core.multiarray
scalar
p2
(cnumpy
dtype
p3
(S'f8'
p4
I0
I1
tp5
Rp6
(I3
S'<'
p7
NNNI-1
I-1
I0
tp8
bS'\xa5\xd9\x16G\xe0m\xab?'
p9
tp10
Rp11
tp12
a(VCAGCATCCTTCGGAAAGCTC
p13
g2
(g6
S'W\xfbCL\xec\x8e\xc1?'
p14
tp15
Rp16
tp17
a(VCGGTAGAAGCAGGTAGTCTG
p18
g2
(g6
S'\xbf\xeb\x03.g\xad\xc4?'
p19
tp20
Rp21
tp22
a(VTCTGGCCACGTAGTCTCCTG
p23
g2
(g6
S'{\x16\x84\xf2>\xce\xd2?'
p24
tp25
Rp26
tp27
a(VAACCGCCAAGGCCGATGCAG
p28
g2
(g6
S'\xb1\xa6\x08)\xa5\x8b\xc6?'
p29
tp30
Rp31
tp32
a(VGGATGACACGGCGCCGGCTC
p33
g2
(g6
S'0\x99\xaeP9`\x94?'
p34
tp35
Rp36
tp37
a(VCTATTCCCCTCCCCTCAATG
p38
g2
(g6
S'\xa7\xc9\x82E"-\xdd?'
p39
tp40
Rp41
tp42
a(VGGAGGCTGCTTTACCCGCTG
p43
g2
(g6
S'\x85ji\xbf\xcc/\xbb?'
p44
tp45
Rp46
tp47
a(VGCCCCAGTGGAAGGCCAACC
p48
g2
(g6
S'(dT\n\x9b\xf0\xce?'
p49
tp50
Rp51
tp52
a(VTCTTGTCCAGAGCTTTCCGA
p53
g2
(g6
S'H{` 8\x99\xe8?'
p54
tp55
Rp56
tp57
a(VTGACCCTGCCCCTGTGGATC
p58
g2
(g6
S'\xd8\x8e\xdfd\xe6\xc5\x9b?'
p59
tp60
Rp61
tp62
a(VCTCTGAGCCACATTGAGGGG
p63
g2
(g6
S'D\x9d)\xdcA\x98\xc3?'
p64
tp65
Rp66
tp67
a(VATGGCTGTAACTGACCACCT
p68
g2
(g6
S'\xf8!\xfa\xab\x83`\xd4?'
p69
tp70
Rp71
tp72
a(VAGCCTCTGCATCGGCCTTGG
p73
g2
(g6
S'@\x8b\x17\x9e\xa6\xf5\xc9?'
p74
tp75
Rp76
tp77
a(VGATCAGGGCGCGGTAGAAGC
p78
g2
(g6
S'6\xf4\xe4\xd4\xad\xe2\xd1?'
p79
tp80
Rp81
tp82
a(VAGGCTGCTTTACCCGCTGTG
p83
g2
(g6
S'\x1b\x1b\x08i\x90y\xb8?'
p84
tp85
Rp86
tp87
a(VCCGGCTCAGGGTGTGTCTCC
p88
g2
(g6
S'\x9f\x1f\xde$\x1ae\\?'
p89
tp90
Rp91
tp92
a(VACAATGACTCGGAGCCACCC
p93
g2
(g6
S'\xc9\x92\x80k\x03D\xe1?'
p94
tp95
Rp96
tp97
a(VGCCACGTAGTCTCCTGAGGC
p98
g2
(g6
S'^\xce\x9a\x8f\xd3&\xa3?'
p99
tp100
Rp101
tp102
a(VCTTCCCGATCCACAGGGGCA
p103
g2
(g6
S'\xfcZ"\r*N\xd0?'
p104
tp105
Rp106
tp107
a(VCCACGTAGTCTCCTGAGGCA
p108
g2
(g6
S'\xfe<f\xd0k4\xe5?'
p109
tp110
Rp111
tp112
a(VCTGAGCCACATTGAGGGGAG
p113
g2
(g6
S'\xc1\x16\xa7\x99ov\xb7?'
p114
tp115
Rp116
tp117
a(VAGGACCGAGTAGTCATCCTG
p118
g2
(g6
S'\xbbg\xe3\xdc\xb4\x06\xd0?'
p119
tp120
Rp121
tp122
a(VGTGGAAGGCCAACCCGGAGA
p123
g2
(g6
S'\x06\x9d\x9e\xe4\xff\xef\xca?'
p124
tp125
Rp126
tp127
a(VCATCCCGCTGCCCCAGTGGA
p128
g2
(g6
S'\x10l\xf2\x1a\x0f\xc4\xb4?'
p129
tp130
Rp131
tp132
a(VGAGCTGCTCCTTCTGGAACA
p133
g2
(g6
S'\x1c\xf6\x8fF\x84\r\xc1?'
p134
tp135
Rp136
tp137
a(VCCCGGAAGACCATGCGCAGA
p138
g2
(g6
S'\xbc\xa65=\x90\x0b\xa9?'
p139
tp140
Rp141
tp142
a(VTGGCCTTCCACTGGGGCAGC
p143
g2
(g6
S'\xe9?\xce\xa8\xb7\x0e\x9f?'
p144
tp145
Rp146
tp147
a(VAGCAGGTAGTCTGGGGATAC
p148
g2
(g6
S'QW\x02\x1f?\xf8q?'
p149
tp150
Rp151
tp152
a(VAAGTTCTGCAATGCGGGAAT
p153
g2
(g6
S'\xb2M\xc7\xef\xaf\x16\xb8?'
p154
tp155
Rp156
tp157
a(VCTGCGCATGGTCTTCCGGGG
p158
g2
(g6
S'Z\xf5\xb9\xda\x8a\xfd\xbd?'
p159
tp160
Rp161
tp162
a(VGATCCATGCGCCCCCACAGC
p163
g2
(g6
S'\xad \x08\xbb!\x80\xc2?'
p164
tp165
Rp166
tp167
a(VCCTTCTGGAACAAGGCCTCA
p168
g2
(g6
S'/\xfd\xa1RR\x0b\xdd?'
p169
tp170
Rp171
tp172
a(VCCGGAAGACCATGCGCAGAG
p173
g2
(g6
S'\x93\xda&=U\x83\xc7?'
p174
tp175
Rp176
tp177
a(VCCAGGCTTCCCGATCCACAG
p178
g2
(g6
S'\x1a\x1e\xf3\xe8\xe3M\xea?'
p179
tp180
Rp181
tp182
a(VTGGTGTCACTCACTTGTTGG
p183
g2
(g6
S'\xe6\xba\xdfW\x9b\xb5\xc7?'
p184
tp185
Rp186
tp187
a(VTCAGCTGATCAAACAAACCC
p188
g2
(g6
S'X)\x1e\xc6\x8d\xe3\xe2?'
p189
tp190
Rp191
tp192
a(VGAGGCTGCTTTACCCGCTGT
p193
g2
(g6
S'\xc5\x0cHS!D\xa9?'
p194
tp195
Rp196
tp197
a(VCGTGGCCAGACCTGGAGACA
p198
g2
(g6
S'g\x87\x9f\xcf\xe5\xa5\x9f?'
p199
tp200
Rp201
tp202
a(VGGAATAGCCATCTGCATAGG
p203
g2
(g6
S'\x95\xb7\x908EV\xd1?'
p204
tp205
Rp206
tp207
a(VGGGTTTGTTTGATCAGCTGA
p208
g2
(g6
S'\x86\x13p\x86\x1d1\xc9?'
p209
tp210
Rp211
tp212
a(VAGAGGCCACGCAGCTTTGTC
p213
g2
(g6
S'\xea\xab\xd9:\xa0;\xbc?'
p214
tp215
Rp216
tp217
a(VGAAAGCTCTGGACAAGATCG
p218
g2
(g6
S' \x94\x04\x9c6\x87\xe3?'
p219
tp220
Rp221
tp222
a(VCATGGCCGACTGCTGCAGCA
p223
g2
(g6
S'@\xd7\x93\x00\x02\x04\xe3?'
p224
tp225
Rp226
tp227
a(VCCAGAAGGAGCAGCTCGTGC
p228
g2
(g6
S'\xb6y]ka\xa9\xa8?'
p229
tp230
Rp231
tp232
a(VTCTGAGCCACATTGAGGGGA
p233
g2
(g6
S'a\xe5h?f\xe8\xc0?'
p234
tp235
Rp236
tp237
a(VCCGGGTGAAGGCCGTGGATG
p238
g2
(g6
S'\xe6\xd7\xe61\x90\x88\x99?'
p239
tp240
Rp241
tp242
a(VAGGGGAATAGCCATCTGCAT
p243
g2
(g6
S'\x9b\x12\xccusa\xc2?'
p244
tp245
Rp246
tp247
a(VTGTAACTGACCACCTCGGCC
p248
g2
(g6
S'\x8e?`\x04\xde\xe0\xcb?'
p249
tp250
Rp251
tp252
a(VGCAGGTAGTCTGGGGATACA
p253
g2
(g6
S'\x08\xd2\xb3\xc3\xd9)\xe0?'
p254
tp255
Rp256
tp257
a(VTGTGAGAAGTTCTGCAATGC
p258
g2
(g6
S"2K\xf6`6'\x99?"
p259
tp260
Rp261
tp262
a(VCTGTGGGGGCGCATGGATCA
p263
g2
(g6
S'\xa73\x16\x9e\xae&\x95?'
p264
tp265
Rp266
tp267
a(VAGTCTCTGTTGGAAGAGAGG
p268
g2
(g6
S'\xb2\xde\x7f\x96t\xf5\xe8?'
p269
tp270
Rp271
tp272
a(VATGACCCTGCCCCTGTGGAT
p273
g2
(g6
S'\xac#\xd2,\x8c\x11\xc2?'
p274
tp275
Rp276
tp277
a(VGTGTCATCCCGCTGCCCCAG
p278
g2
(g6
S'\x85\xf2\x94\x8e\x9fq\xc7?'
p279
tp280
Rp281
tp282
a(VCGGCCATGACCCTGCCCCTG
p283
g2
(g6
S'\xc7\xf6\xfc^zc\xa4?'
p284
tp285
Rp286
tp287
a(VTTGGCCTTCCACTGGGGCAG
p288
g2
(g6
S"K\xc6' \xcap\xb2?"
p289
tp290
Rp291
tp292
a(VCCACTGCTCGTCCCCATCCA
p293
g2
(g6
S'\xfe\xdc\xe4x\x84A\xd5?'
p294
tp295
Rp296
tp297
a(VGATGACCCTGCTGCAGCAGT
p298
g2
(g6
S'\xe4\x067\xaa\xb7\x0c\xd0?'
p299
tp300
Rp301
tp302
a(VGTATCTCTGAGCCACATTGA
p303
g2
(g6
S'\xdb\xce\xb78<\x9a\xe0?'
p304
tp305
Rp306
tp307
a(VGCAGGGATGGCCCCACAGAG
p308
g2
(g6
S'\x8a\x9cI\x918\xe8\xd1?'
p309
tp310
Rp311
tp312
a(VGGAGACTACGTGGCCAGACC
p313
g2
(g6
S'm\x03:=6\x9c\xae?'
p314
tp315
Rp316
tp317
a(VGCAGTGGATCCTGGCCGAGG
p318
g2
(g6
S'\xf7\xac\xb7Bb\xff\xbb?'
p319
tp320
Rp321
tp322
a(VCCTCTGCGCATGGTCTTCCG
p323
g2
(g6
S'\xb7\xf9:\x011\xcf\xe2?'
p324
tp325
Rp326
tp327
a(VGGCCAGACCTGGAGACAAGG
p328
g2
(g6
S'\x14N.m\x08\xb3\xd7?'
p329
tp330
Rp331
tp332
a(VCCCATCCACGGCCTTCACCC
p333
g2
(g6
S';*\xb0`\x189\xbe?'
p334
tp335
Rp336
tp337
a(VTCCCCGCCCTCAGCATCCTT
p338
g2
(g6
S'\x940\x91\xda\xdd\xa6\xc9?'
p339
tp340
Rp341
tp342
a(VGATGACACGGCGCCGGCTCA
p343
g2
(g6
S'o~w\xb6=\xfd\xad?'
p344
tp345
Rp346
tp347
a(VACAGGACCGAGTAGTCATCC
p348
g2
(g6
S'\xbc\xb6\xecMb\xc9\x94?'
p349
tp350
Rp351
tp352
a(VCATCAGCACCCCTCTGCGCA
p353
g2
(g6
S'I\x1ag\xc9\x9f\x0c\xc3?'
p354
tp355
Rp356
tp357
a(VCAAGGTGGCTGCCCGGGTGA
p358
g2
(g6
S'D\xa2\x7fk\xef\x9f\xa2?'
p359
tp360
Rp361
tp362
a(VTGTGGCTCAGAGATACGTGG
p363
g2
(g6
S'\x85{\xac\xb36*\xe7?'
p364
tp365
Rp366
tp367
a(VCAGGACCGAGTAGTCATCCT
p368
g2
(g6
S'P\xfb\x0b\x0f*\t\xa6?'
p369
tp370
Rp371
tp372
a(VACATCCAGAAGACCCATGAG
p373
g2
(g6
S'\x99*\x9c\xcdx\xf5\xe8?'
p374
tp375
Rp376
tp377
a(VTGGGGACGAGCAGTGGATCC
p378
g2
(g6
S'/~"h/Ou?'
p379
tp380
Rp381
tp382
a(VCCAGGAGACACACCCTGAGC
p383
g2
(g6
S"\niP\xde\x0e'\xba?"
p384
tp385
Rp386
tp387
a(VTATTACCGGACAAAGCTGCG
p388
g2
(g6
S'GXT\xc4\xe9\xc4\xdf?'
p389
tp390
Rp391
tp392
a(VCTGTGAGAAGTTCTGCAATG
p393
g2
(g6
S'?\xbe\x914\x10\xaf\xc2?'
p394
tp395
Rp396
tp397
a(VACCAGGCTTCCCGATCCACA
p398
g2
(g6
S'\xcf\x91UD_\xd7\xc9?'
p399
tp400
Rp401
tp402
a(VCCCCGGAAGACCATGCGCAG
p403
g2
(g6
S'\x05\xc9\xbc\x07H\xf1\xc9?'
p404
tp405
Rp406
tp407
a(VCTTGCACTCAGCCTCTGCAT
p408
g2
(g6
S'\x90\xb7\xe05}`\xe2?'
p409
tp410
Rp411
tp412
a(VACTGGGGCAGCGGGATGACA
p413
g2
(g6
S'\xcd\xf7\xe9\xfe\x05P\xcd?'
p414
tp415
Rp416
tp417
a(VACAGCCCCAGGATGACTACT
p418
g2
(g6
S'\xe0z\x1c\x1f\x90x\xd5?'
p419
tp420
Rp421
tp422
a(VGAAGACACCTCCTATGCAGA
p423
g2
(g6
S'\x91@-M\xe4\xde\xd1?'
p424
tp425
Rp426
tp427
a(VTCTGCCTGCCCCACAGCCCC
p428
g2
(g6
S'f\xd9r\xb2\xfdy\xcb?'
p429
tp430
Rp431
tp432
a(VCCCCATCCACGGCCTTCACC
p433
g2
(g6
S'-\x00\x95C\xee\x16\xb4?'
p434
tp435
Rp436
tp437
a(VGGCTGCCCGGGTGAAGGCCG
p438
g2
(g6
S'-\n\xf0\x1aJ\x06\xd6?'
p439
tp440
Rp441
tp442
a(VTGATCCATGCGCCCCCACAG
p443
g2
(g6
S'v\xa2@y\x01\xd1\xdf?'
p444
tp445
Rp446
tp447
a(VTCAAGTCTCTGTTGGAAGAG
p448
g2
(g6
S'&\x8c\x91\xe5W\xc5\xcb?'
p449
tp450
Rp451
tp452
a(VGCAGCGGGATGACACGGCGC
p453
g2
(g6
S'\xa7\xb6{\x89\x16\xf8\xd9?'
p454
tp455
Rp456
tp457
a(VTTACCCGCTGTGGGGGCGCA
p458
g2
(g6
S'q\xf2\xae\xbc\xdc\x0e\xc8?'
p459
tp460
Rp461
tp462
a(VATTGTAGAGACCGGCAATCT
p463
g2
(g6
S'\xb1\xd6\xa9"w9v?'
p464
tp465
Rp466
tp467
a(VCCCTGCCTCAGGAGACTACG
p468
g2
(g6
S'\xc3\xe5\xb8 IS\xd8?'
p469
tp470
Rp471
tp472
a(VGGCAGGGATGGCCCCACAGA
p473
g2
(g6
S'\xed\x9b=\xc8\x99\x83\xc4?'
p474
tp475
Rp476
tp477
a(VTCCTTCTGGAACAAGGCCTC
p478
g2
(g6
S'G\xa8\xbe\x98\xd2\x9fr?'
p479
tp480
Rp481
tp482
a(VCGAGCAGTGGATCCTGGCCG
p483
g2
(g6
S'\xc1\x11\xee\xdf\x06\x16\xe2?'
p484
tp485
Rp486
tp487
a(VCAGGCCCCCACCCCTCTGTG
p488
g2
(g6
S'\xc3b\x83n\xf7>\xbc?'
p489
tp490
Rp491
tp492
a(VCTCCGGGTTGGCCTTCCACT
p493
g2
(g6
S'\x1d\x86Y\xdf\xf5V\xba?'
p494
tp495
Rp496
tp497
a(VGTAGTCTCCTGAGGCAGGGA
p498
g2
(g6
S'\xe0G\xc8O\xc9\x8a\xcc?'
p499
tp500
Rp501
tp502
a(VCCGTGGATGGGGACGAGCAG
p503
g2
(g6
S'\x1c\xa2-\x8e\x9a\xd4\xd2?'
p504
tp505
Rp506
tp507
a(VGCTTCCCGATCCACAGGGGC
p508
g2
(g6
S'\x9b\xe2\x88\xed\xa2s\xb4?'
p509
tp510
Rp511
tp512
a(VTGCCGGTCTCTACAATGACT
p513
g2
(g6
S'\xc75\xce>@\x0b\xc9?'
p514
tp515
Rp516
tp517
a(VGTAGATGACATCGATGAAGA
p518
g2
(g6
S'%Fq\xbcr%\xcb?'
p519
tp520
Rp521
tp522
a(VGCGGGAATCGGCAGACACGA
p523
g2
(g6
S'\xbbyJ\xd1A,\xe5?'
p524
tp525
Rp526
tp527
a(VCCTTACAGGAAGAGCGTTCG
p528
g2
(g6
S't\xb8\xf8\t\xd7\x8b\xb2?'
p529
tp530
Rp531
tp532
a(VCGGCCTTGGCGGTTGTGTAG
p533
g2
(g6
S'Y\xcf%)\xa4\x8d\xa9?'
p534
tp535
Rp536
tp537
a(VCGCGGAAATCAAGTCTCTGT
p538
g2
(g6
S' \xc8\xd7$\x93\xe1\xad?'
p539
tp540
Rp541
tp542
a(VCCCGGGTGAAGGCCGTGGAT
p543
g2
(g6
S'I\xdd\xd3w\xac\x89\xa4?'
p544
tp545
Rp546
tp547
a(VGGGGCGCATGGATCAGGGCG
p548
g2
(g6
S'_\xadu\n;\n\xd7?'
p549
tp550
Rp551
tp552
a(VTGCGGGAATCGGCAGACACG
p553
g2
(g6
S'\xe5\xf9l\x1ad]\xcb?'
p554
tp555
Rp556
tp557
a(VGCCCGGGTGAAGGCCGTGGA
p558
g2
(g6
S'b\xb0\xd6\xe1\xcc\xd5\xa7?'
p559
tp560
Rp561
tp562
a(VCACCAGGCTTCCCGATCCAC
p563
g2
(g6
S'x\xa3\xce]\xc4\xd7\xa5?'
p564
tp565
Rp566
tp567
a(VTGGCCTCTACACAACCGCCA
p568
g2
(g6
S'1\xfc^Eqg\xdf?'
p569
tp570
Rp571
tp572
a(VTCATGGCCGACTGCTGCAGC
p573
g2
(g6
S'G\xf7KB$n\xa7?'
p574
tp575
Rp576
tp577
a(VGGTTGGTGTCACTCACTTGT
p578
g2
(g6
S'2\x0f\x9b\xf3L"\xce?'
p579
tp580
Rp581
tp582
a(VCGCAGCTTTGTCCGGTAATA
p583
g2
(g6
S'tj\x18R\x06\x8d\xc1?'
p584
tp585
Rp586
tp587
a(VAGCCACCTTGTCTCCAGGTC
p588
g2
(g6
S'\xf3\xc6\xb6\xfd\x0c\x1ew?'
p589
tp590
Rp591
tp592
a(VCTCAGCCTCTGCATCGGCCT
p593
g2
(g6
S'\xc9G\xb3\xfbS\xff\xb1?'
p594
tp595
Rp596
tp597
a(VGCTGTGGGGGCGCATGGATC
p598
g2
(g6
S'[\xa6;\\fi{?'
p599
tp600
Rp601
tp602
a(VTGCTGCCCTCACTTGTCACC
p603
g2
(g6
S'\xddk\x01\xd4\xe6\xd5\xc3?'
p604
tp605
Rp606
tp607
a(VCATAGGAGGTGTCTTCAAAC
p608
g2
(g6
S'\x84sR\x07\x95\x12\xb5?'
p609
tp610
Rp611
tp612
a(VCTGTTGGAAGAGAGGCGGAT
p613
g2
(g6
S'\xeb\n*hb\x93\xcd?'
p614
tp615
Rp616
tp617
a(VCTGGAGACAAGGTGGCTGCC
p618
g2
(g6
S'\xb0Z1\r\xd7+\x95?'
p619
tp620
Rp621
tp622
a(VTGTGGGGCCATCCCTGCCTC
p623
g2
(g6
S'e\x97T\xdf\x8c\xa9\xaa?'
p624
tp625
Rp626
tp627
a(VCTGCAGTTTCTCCCTATTAC
p628
g2
(g6
S'\t\x1b\x10\xb4\x11n\xba?'
p629
tp630
Rp631
tp632
a(VTCACTCACTTGTTGGTGGCA
p633
g2
(g6
S')\xe2\x0fg\xc7\x0b\xac?'
p634
tp635
Rp636
tp637
a(VGCGGTAGAAGCAGGTAGTCT
p638
g2
(g6
S'q\xe7\t\x1e\xbb\x18\x86?'
p639
tp640
Rp641
tp642
a(VCGTATCTCTGAGCCACATTG
p643
g2
(g6
S'W~2)\xb2\x94\xd5?'
p644
tp645
Rp646
tp647
a(VCAATGTGGCTCAGAGATACG
p648
g2
(g6
S'\x1f*\xcf\xb4\xab\xfd\xe2?'
p649
tp650
Rp651
tp652
a(VGGGATGGCCCCACAGAGGGG
p653
g2
(g6
S'Z\xeb\n\x04\xa1?\xc2?'
p654
tp655
Rp656
tp657
a(VCGGGCAGCCACCTTGTCTCC
p658
g2
(g6
S'\xdb\xf55?\xbc\xb6\x96?'
p659
tp660
Rp661
tp662
a(VGATCCACAGGGGCAGGGTCA
p663
g2
(g6
S'T\xcf\xe2\xc2\n\x82\xac?'
p664
tp665
Rp666
tp667
a(VGAGATACGTGGTGGCTTGTA
p668
g2
(g6
S'O\x93\xb1\x8b\xb6\xeb\xae?'
p669
tp670
Rp671
tp672
a(VCCAGCACGAGCTGCTCCTTC
p673
g2
(g6
S'E\xf7jO\xe2\xd6\xa2?'
p674
tp675
Rp676
tp677
a(VACGCAGCTTTGTCCGGTAAT
p678
g2
(g6
S'\t\xa3.Y\xe2\xef\xa4?'
p679
tp680
Rp681
tp682
a(VTATCTCTGAGCCACATTGAG
p683
g2
(g6
S'T)1`\xad\xc0\xdb?'
p684
tp685
Rp686
tp687
a(VCGGCTCAGGGTGTGTCTCCT
p688
g2
(g6
S'O\xf3?\r\xa0^w?'
p689
tp690
Rp691
tp692
a(VCTCTGTCTGCATCCGCTCAT
p693
g2
(g6
S'J0VMp\xe7\xb6?'
p694
tp695
Rp696
tp697
a(VCGCGGTAGAAGCAGGTAGTC
p698
g2
(g6
S'\x9a9\x99\xc2\xc7\x83\x84?'
p699
tp700
Rp701
tp702
a(VCCCCTCTGCGCATGGTCTTC
p703
g2
(g6
S'-\x02O\x99\x1c\xf0y?'
p704
tp705
Rp706
tp707
a(VACAGGCCCCCACCCCTCTGT
p708
g2
(g6
S'fK\x9d\x1aDx\xad?'
p709
tp710
Rp711
tp712
a(VCCCACAGCGGCCAAGATTGC
p713
g2
(g6
S'D\xb7}\xe0Ak\xb3?'
p714
tp715
Rp716
tp717
a(VCCCTCTGCGCATGGTCTTCC
p718
g2
(g6
S'\xb1\xfe\xb8\xc5Hk\x82?'
p719
tp720
Rp721
tp722
a(VGATGGCCCCACAGAGGGGTG
p723
g2
(g6
S'w\xcf\xec\x80\x0c\x19\xb1?'
p724
tp725
Rp726
tp727
a(VATGGCCCCACAGAGGGGTGG
p728
g2
(g6
S'\x90\x8f\xc2g~D\xac?'
p729
tp730
Rp731
tp732
a(VGCATCCGCTCATGGGTCTTC
p733
g2
(g6
S'\xa6\xfe:j^\xeb\xb5?'
p734
tp735
Rp736
tp737
a(VCCCTGAGGCCTTGTTCCAGA
p738
g2
(g6
S'\xe7i\xb1\xf5\xbb\xd9\xd1?'
p739
tp740
Rp741
tp742
a(VCCCCTGTGGATCGGGAAGCC
p743
g2
(g6
S'\xe1=\xc81\xe0\xcc\x86?'
p744
tp745
Rp746
tp747
a.