(lp0
(VCGAGGAGAGACTCACCGGAA
p1
cnumpy.core.multiarray
scalar
p2
(cnumpy
dtype
p3
(S'f8'
p4
I0
I1
tp5
Rp6
(I3
S'<'
p7
NNNI-1
I-1
I0
tp8
bS'\xd8!\xbaDN\x8f\xb1?'
p9
tp10
Rp11
tp12
a(VCTTTGGTGTGGCTGACTGAG
p13
g2
(g6
S'K\x8f\xbd\x16\xa8P\xb6?'
p14
tp15
Rp16
tp17
a(VGAGCATCTCAAACACAACGA
p18
g2
(g6
S'P\xd9U\xed?\x97\xe6?'
p19
tp20
Rp21
tp22
a(VAAGCATGTCTTGGTGCTGGT
p23
g2
(g6
S':\xdc~aH\n\xe1?'
p24
tp25
Rp26
tp27
a(VTTAGGTAACTCAGCAGTTGA
p28
g2
(g6
S'\xad\xc6\x1cH:\xea\xca?'
p29
tp30
Rp31
tp32
a(VAATATCCTGTCGTGAGCACC
p33
g2
(g6
S'\x01X\xeaG-\x8e\xc3?'
p34
tp35
Rp36
tp37
a(VGGGTGCTCACGACAGGATAT
p38
g2
(g6
S'\x8c\x8e\xb6\xba4\xaf\xbe?'
p39
tp40
Rp41
tp42
a(VGCCCTACAGTCCCTCGCCTG
p43
g2
(g6
S'\xf8\xae/|\xbe\x92\xb4?'
p44
tp45
Rp46
tp47
a(VGGTGTATTAGGGATCATCTA
p48
g2
(g6
S'\xa1\x9d1\x9e\xd1.\xe3?'
p49
tp50
Rp51
tp52
a(VTATCATCAATAAATAATGAG
p53
g2
(g6
S'\x07j\xa0\x15\xf2\xca\xdc?'
p54
tp55
Rp56
tp57
a(VATAACTTGTACATGCAACCA
p58
g2
(g6
S'\xa4E\xa1X\xb3\xbd\xca?'
p59
tp60
Rp61
tp62
a(VACAGTCCGGGTGCTCACGAC
p63
g2
(g6
S'?\xbc\x19\xfb\xb3\x9b\xab?'
p64
tp65
Rp66
tp67
a(VTTCTACTTAGCCAAACACAG
p68
g2
(g6
S'Z\xe3x\xad\xa0\xa3\xe5?'
p69
tp70
Rp71
tp72
a(VTGAGAGGTATTCAGGAGACC
p73
g2
(g6
S'\xac\xd7\x13\xae^}\xc7?'
p74
tp75
Rp76
tp77
a(VTAGAGACATACTAATGTACA
p78
g2
(g6
S'\x0b\x1f\xf8\xb5\x81}\xb2?'
p79
tp80
Rp81
tp82
a(VTTTCCTCCACAGACTGAATG
p83
g2
(g6
S'R\x8fS\xc5k\x16\xc3?'
p84
tp85
Rp86
tp87
a(VACACAACGATGGATGAATTC
p88
g2
(g6
S'\xdc\x07\x9a{\xba\xcd\xb5?'
p89
tp90
Rp91
tp92
a(VAAGTAACTGGCTCTAATACA
p93
g2
(g6
S'\x07%_\x18\xcf\xf1\xd2?'
p94
tp95
Rp96
tp97
a(VAGCTGAAAAAGGGAGTCAAA
p98
g2
(g6
S'\nZ\xd9"\x8f\xbe\xcb?'
p99
tp100
Rp101
tp102
a(VACCACAGGCGAGGGACTGTA
p103
g2
(g6
S'\xefx?\xe0\x14\x85\xd8?'
p104
tp105
Rp106
tp107
a(VTTGGATATTACAGATGACCA
p108
g2
(g6
S'\x961O\xf8\xb6j\xca?'
p109
tp110
Rp111
tp112
a(VAAGGTGAATCCGACCCAGAG
p113
g2
(g6
S'B7T\xbc,\xce\xbf?'
p114
tp115
Rp116
tp117
a(VTTTGGTGTGGCTGACTGAGT
p118
g2
(g6
S'\xe7\xfaU\xb8\x99\x95\xa5?'
p119
tp120
Rp121
tp122
a(VTTTACATAGGTATCTTTAGG
p123
g2
(g6
S'\xa5\xeb\xc9\xc9\xb2\x8a\xce?'
p124
tp125
Rp126
tp127
a(VCTCTAACAAGCTCTCTTTCA
p128
g2
(g6
S'\xcf\xc9\x04\\\x8du\x94?'
p129
tp130
Rp131
tp132
a(VTTTAACTGGTCCATAAAATG
p133
g2
(g6
S'B\xdbq\x90\xfe\x01\xb2?'
p134
tp135
Rp136
tp137
a(VCAGGAAGATGGATCTGAAGT
p138
g2
(g6
S'6\xa9\x17e\xfe\x9d\xb2?'
p139
tp140
Rp141
tp142
a(VTGTTGGTTTACCACAGGCGA
p143
g2
(g6
S'\x86\x91\x12F\xa9\xe0\xe2?'
p144
tp145
Rp146
tp147
a(VGCACTGCCTTGACAAATCAA
p148
g2
(g6
S'v\xc1\x1d\xfeS\xb7\xeb?'
p149
tp150
Rp151
tp152
a(VCTTACCTGGATATAGTCAAC
p153
g2
(g6
S'\t\xe0\xd8FK\x84\xb6?'
p154
tp155
Rp156
tp157
a(VCTGTGGTAAACCAACACAGC
p158
g2
(g6
S'qI@\x12\x17\xfc\xc2?'
p159
tp160
Rp161
tp162
a(VTGGGATGTTGCACTTTGGTG
p163
g2
(g6
S'v\xc7\xb3\xe2S4\xb1?'
p164
tp165
Rp166
tp167
a(VAGATAGAAGCTGCTATAGTG
p168
g2
(g6
S'\xd7\xd11\x1a\x0b\x00\xde?'
p169
tp170
Rp171
tp172
a(VAGTGTATGAGTTCCTATTTG
p173
g2
(g6
S'\x1c\xe3\xb3\n\xd5\xac\xa3?'
p174
tp175
Rp176
tp177
a(VCTGCAGAACCCATATGATGC
p178
g2
(g6
S'\xc3\x9a\xeb\xb0\x99\xae\xa6?'
p179
tp180
Rp181
tp182
a(VTGTTTCTTTCCTCTCTGGGT
p183
g2
(g6
S'\xd5\x0c\xe3M\x02\xc4\xc7?'
p184
tp185
Rp186
tp187
a(VAAATCAAAGGAAATAGAAAA
p188
g2
(g6
S"\xad'\xe3\xad-\x9b\xc7?"
p189
tp190
Rp191
tp192
a(VGTTATTAAGAAACGTATTGA
p193
g2
(g6
S'\xd2\x91\xfe\x8cB\xfa\xa0?'
p194
tp195
Rp196
tp197
a(VTGTACGTTATGGGTGTATTA
p198
g2
(g6
S'\xa1[\\\xa1\x17g\xdb?'
p199
tp200
Rp201
tp202
a(VACCCAGAGAGGAAAGAAACA
p203
g2
(g6
S'\xc8\xacy\xb6\x90%\xdf?'
p204
tp205
Rp206
tp207
a(VGAATGATCATCAAACAGCTA
p208
g2
(g6
S'\xcc\x13\xd5I \x1f\xca?'
p209
tp210
Rp211
tp212
a(VATATTTGGCACGAACACCTG
p213
g2
(g6
S'\x80\x0b\x10\xd7\xfaJ\xe0?'
p214
tp215
Rp216
tp217
a(VGCTGAAAAAGGGAGTCAAAG
p218
g2
(g6
S'\x1f\xf7\xe2\xc8Y1\xe4?'
p219
tp220
Rp221
tp222
a(VTAGTAGAAATGGAGAATTCT
p223
g2
(g6
S'6LX\x0e9%\x94?'
p224
tp225
Rp226
tp227
a(VAGTTCCTATTTGAGGGAGCA
p228
g2
(g6
S'^12\xe7j\xc2\xb8?'
p229
tp230
Rp231
tp232
a(VCCTGTGGTAAACCAACACAG
p233
g2
(g6
S'\x18;\x8b%\x7f<\xed?'
p234
tp235
Rp236
tp237
a(VGCAGCACAATGTTCTAGTAG
p238
g2
(g6
S'>\x96d;\xe4\xc8\xdb?'
p239
tp240
Rp241
tp242
a(VGAATCCTGTTGACTATATCC
p243
g2
(g6
S'\xe8e\x0f\x12t\xc4\xb1?'
p244
tp245
Rp246
tp247
a(VCAGTTCACGTCAAAACTGGA
p248
g2
(g6
S'|I\n\xfcF\x93\xd9?'
p249
tp250
Rp251
tp252
a(VGACCACTGTTATTCTTACGC
p253
g2
(g6
S'r(\xf5\xc5\xdb\x13\xc4?'
p254
tp255
Rp256
tp257
a(VGTGGTGTTGATCTTACAGTC
p258
g2
(g6
S'\n\xeb\xc9s\xb2\x11\xc0?'
p259
tp260
Rp261
tp262
a(VGCTGGTGGGATGTTGCACTT
p263
g2
(g6
S'\xc7a+\xc6\xcb\xe3\xc5?'
p264
tp265
Rp266
tp267
a(VTTGAAAAATGGAAAGACAGA
p268
g2
(g6
S'\xff=s4\x19\x9e\xcd?'
p269
tp270
Rp271
tp272
a(VCTATAGAAATGCATATACAA
p273
g2
(g6
S'o\xf5>\x83\xbd!\xe1?'
p274
tp275
Rp276
tp277
a(VCATTGTTGAATGATTCCAGG
p278
g2
(g6
S'\x98\x0b\xe8\xc7W\xf9\xe9?'
p279
tp280
Rp281
tp282
a(VAGAGACTCACCGGAAAGGCC
p283
g2
(g6
S'ph\x9c\x16T\xa5\xd9?'
p284
tp285
Rp286
tp287
a(VAAAGCTCTTGTTTCTGAAGA
p288
g2
(g6
S'\xbeb\x87\xdd\xe9a\x9f?'
p289
tp290
Rp291
tp292
a(VGCTCACACTCCAGCATCATA
p293
g2
(g6
S'\xa4QV\x13\x11l\xd5?'
p294
tp295
Rp296
tp297
a(VGTTCTTCCGTTGATTTGTCA
p298
g2
(g6
S'\xebn\x94x\x1d\n\xc9?'
p299
tp300
Rp301
tp302
a(VTGAATTCAGGCAACATCTAC
p303
g2
(g6
S'DLT2\xaaS\xad?'
p304
tp305
Rp306
tp307
a(VAATTGTAAAGGTGGTTGAAA
p308
g2
(g6
S'\xf2G\x1evI\x16\xc0?'
p309
tp310
Rp311
tp312
a(VTACCTTATTTATGAGATGTT
p313
g2
(g6
S'\xb6Ed\x1bb\x03\xb1?'
p314
tp315
Rp316
tp317
a(VTGAGCAAAGGCACGGGCAGC
p318
g2
(g6
S'b\x07\xfb\x9a\xd8\x88\xae?'
p319
tp320
Rp321
tp322
a(VATCCAGCGTAAGAATAACAG
p323
g2
(g6
S'\x89l\xf7\xdd:@\xd9?'
p324
tp325
Rp326
tp327
a(VGAGCTGTCGACCACTGTGTT
p328
g2
(g6
S'\xafx,\xae\xd8|\xb7?'
p329
tp330
Rp331
tp332
a(VTTTGTAAGAACCCGCTGTGT
p333
g2
(g6
S'\x8c\x97\x80\xf5>)\xc0?'
p334
tp335
Rp336
tp337
a(VATTCAGGAGACCTGGAGTTG
p338
g2
(g6
S'\xfe\xcd\xdf\x12\xed\x9b\xbd?'
p339
tp340
Rp341
tp342
a(VAACGGAAGAACCAATTGTAA
p343
g2
(g6
S'~K\xe7`\x89\xc9\xb8?'
p344
tp345
Rp346
tp347
a(VTACAAAAGAACCCAAATCAA
p348
g2
(g6
S'\xfa\xc9\x92\xe5\x96\xe9\xc8?'
p349
tp350
Rp351
tp352
a(VATTATTAAAGAGCATTAATA
p353
g2
(g6
S'I)\xd4\x12\xac#\xc6?'
p354
tp355
Rp356
tp357
a(VGGAAGAACCAATTGTAAAGG
p358
g2
(g6
S'\xb8\x90&b:\x82\xcd?'
p359
tp360
Rp361
tp362
a(VAGAGCATTAATATGGTCATC
p363
g2
(g6
S'F\x93\x14#\x0e\x83\xa6?'
p364
tp365
Rp366
tp367
a(VGCTTATTGGATCTGAAGAGT
p368
g2
(g6
S"r'\x1dT\xfe\x8f\xac?"
p369
tp370
Rp371
tp372
a(VGGTCATTGTTGAATGATTCC
p373
g2
(g6
S'\x18\xe2\xf8\xa4\x8a\x17\xab?'
p374
tp375
Rp376
tp377
a(VACGTTATTATAAACAACACT
p378
g2
(g6
S'\x9d[\x11\xca5\x84\xd1?'
p379
tp380
Rp381
tp382
a(VAAAGGCCCGGATCCGCATCT
p383
g2
(g6
S'\xa3D\xd6\x10\xd8y\xa2?'
p384
tp385
Rp386
tp387
a(VTAGGTTCGATCGCTTCCTCC
p388
g2
(g6
S'\x0c\xc6\x02\x0b\xd2\x1f\xad?'
p389
tp390
Rp391
tp392
a(VTACCACAGGCGAGGGACTGT
p393
g2
(g6
S'+bs6f\xd7r?'
p394
tp395
Rp396
tp397
a(VGTTGGAGGTGCACAAGTAAC
p398
g2
(g6
S'\xb1\x1c\ng\x03%\xcb?'
p399
tp400
Rp401
tp402
a(VGGATCTGAAGTTGGTGTTGG
p403
g2
(g6
S'\xc5X\xf2\xedgu\xbd?'
p404
tp405
Rp406
tp407
a(VAGGCAACATCTACAGGCAAC
p408
g2
(g6
S'\xa0]\x02\x13_=\xb8?'
p409
tp410
Rp411
tp412
a(VGGAAAGGAGAAGTCGTAGAC
p413
g2
(g6
S'\xab\xfaZl\x9ad\xd3?'
p414
tp415
Rp416
tp417
a(VCATGGAGAAAAGCTCTACAC
p418
g2
(g6
S'D\x10fa\xef\xc8\xc0?'
p419
tp420
Rp421
tp422
a(VGCACAATGTTCTAGTAGCGG
p423
g2
(g6
S'RT\xd5\x82\x19\xbe\xe7?'
p424
tp425
Rp426
tp427
a(VATGATTGCAAGAGAGCGGAA
p428
g2
(g6
S'\xf4ck4\xbb\xd9\xc4?'
p429
tp430
Rp431
tp432
a(VTAATATGGTCATCTGGAAAG
p433
g2
(g6
S'\x11\xac\x98\xb4#\x01\xb2?'
p434
tp435
Rp436
tp437
a(VGTGTTGGTTTACCACAGGCG
p438
g2
(g6
S'1-\xf9\xbe\t|\xd0?'
p439
tp440
Rp441
tp442
a(VGTGGAGAACGTCTACAATTT
p443
g2
(g6
S'8\xa1\xe5\x80*\\\x99?'
p444
tp445
Rp446
tp447
a(VCAATAGTTTGTTTAAAGAGA
p448
g2
(g6
S'\xce\xfek9\xca\xd3\xc3?'
p449
tp450
Rp451
tp452
a(VGACCTAAAATCATTAACATC
p453
g2
(g6
S'\\\xae]^\xa9\xfc\xab?'
p454
tp455
Rp456
tp457
a(VGCCGGAAGGACACCAAGATG
p458
g2
(g6
S'\xca\xb6_\x80uC\xc2?'
p459
tp460
Rp461
tp462
a(VTTTACCTTGCTCCCTCAAAT
p463
g2
(g6
S'\xe8Y/\xd7\xb9\x01\xd7?'
p464
tp465
Rp466
tp467
a(VGTATGTACAACAAAATAATG
p468
g2
(g6
S'\xc9\x97\x8f%%\x9d\xe0?'
p469
tp470
Rp471
tp472
a(VGTGTATGAGTTCCTATTTGA
p473
g2
(g6
S'\xbcm\xa9\xfa\xca\x80\xd7?'
p474
tp475
Rp476
tp477
a(VTGGGTCGGATTCACCTTGTT
p478
g2
(g6
S'\x9d\xe5\xdfR\xc1\xed\xae?'
p479
tp480
Rp481
tp482
a(VTAGAGAAAAATACACATTTG
p483
g2
(g6
S't\x95\x93\xf5@\xd0\xa9?'
p484
tp485
Rp486
tp487
a(VGTCGAATCTGAGCAAAGGCA
p488
g2
(g6
S'tW\xca\xc0ni\xe1?'
p489
tp490
Rp491
tp492
a(VCAAAGGCACGGGCAGCCGGA
p493
g2
(g6
S'\xabJ\x11\xcf\xc8\xd6\xbf?'
p494
tp495
Rp496
tp497
a(VTGGATATGATTGCAAGAGAG
p498
g2
(g6
S'\xadMz\x17\xa3\x19\xe1?'
p499
tp500
Rp501
tp502
a(VATTATAAACAACACTTGGCA
p503
g2
(g6
S'\xa3\xdd\xf0\xd4\x867\xa0?'
p504
tp505
Rp506
tp507
a(VGATGGATCTGAAGTTGGTGT
p508
g2
(g6
S'9Y\xbe\xbcm7\xd5?'
p509
tp510
Rp511
tp512
a(VCCGCTGTGTTGGTTTACCAC
p513
g2
(g6
S'%f\x19\x89\xa0\x0f\xc8?'
p514
tp515
Rp516
tp517
a(VTCCGCATCTTGGTGTCCTTC
p518
g2
(g6
S'\x1b\xb2\x8e\x9e\xb3\xe9\xb9?'
p519
tp520
Rp521
tp522
a(VAAGCTGAAAAAGGGAGTCAA
p523
g2
(g6
S'\x17\xc6\xd6fu\x08\x9a?'
p524
tp525
Rp526
tp527
a(VTGGTGTTGATCTTACAGTCC
p528
g2
(g6
S'y\xbf~F\xf1C\xb1?'
p529
tp530
Rp531
tp532
a(VTACCGAACATCTCATAAATA
p533
g2
(g6
S'\xe5p\x85.\xe3\xd1\xb1?'
p534
tp535
Rp536
tp537
a(VCATGAAGACTATAGTAGAAA
p538
g2
(g6
S'p\xdb\x1a\xb8\xd3;\xb1?'
p539
tp540
Rp541
tp542
a(VAATATCTCAAAAGCATGTCT
p543
g2
(g6
S'G>&\x87\x8c\x9d\xad?'
p544
tp545
Rp546
tp547
a(VTCAAAAGCATGTCTTGGTGC
p548
g2
(g6
S'\xb7#\x1b\x96\xa6K\xc1?'
p549
tp550
Rp551
tp552
a(VAACAATATTGGATAAAGCAA
p553
g2
(g6
S'\xe0a\xd0\xc5\x83\x06\xcf?'
p554
tp555
Rp556
tp557
a(VAAAGCATGTCTTGGTGCTGG
p558
g2
(g6
S'\xa4\xe8\xfdV\x1d\xff\xa8?'
p559
tp560
Rp561
tp562
a(VATGTCAGTTCACGTCAAAAC
p563
g2
(g6
S'\x93\x80\xfefU\x90\xb4?'
p564
tp565
Rp566
tp567
a(VATTGATGATAAGCTGAAAAA
p568
g2
(g6
S'\x96\x0e6rf\xa6\xdd?'
p569
tp570
Rp571
tp572
a(VACAAGAAGTAGAAACAATAT
p573
g2
(g6
S"\xf0{'\xa8\xd9\xaa\xc1?"
p574
tp575
Rp576
tp577
a(VAGGACACCAAGATGCGGATC
p578
g2
(g6
S'\xde\xbd\xccE\xb6\xd2\x7f?'
p579
tp580
Rp581
tp582
a(VAAAATATGTAAACAGCATTT
p583
g2
(g6
S'\xfc\t\xb5F\x07\x9b\xa7?'
p584
tp585
Rp586
tp587
a(VCTCACACTCCAGCATCATAT
p588
g2
(g6
S'$\x00(\x14\\+\xd6?'
p589
tp590
Rp591
tp592
a(VCACAGAGTCAAGATTCAAAC
p593
g2
(g6
S'\x92\xc4\x02\xc7\xb4\x82\xd8?'
p594
tp595
Rp596
tp597
a(VGAGATCAAGTTGTACGTTAT
p598
g2
(g6
S'\xa5\x8aYdxB\xb5?'
p599
tp600
Rp601
tp602
a(VATAGTAGAAATGGAGAATTC
p603
g2
(g6
S'\xbd\xd3\x11~\xb1\x10\x9e?'
p604
tp605
Rp606
tp607
a(VGCCTTTGCTCAGATTCGACA
p608
g2
(g6
S'mvg\x97\xb6\xf2\xe2?'
p609
tp610
Rp611
tp612
a(VGTGTATACTTTGCGATCCTC
p613
g2
(g6
S'5\x1e\x11\xf8h\x96\xb9?'
p614
tp615
Rp616
tp617
a(VGGACACCAAGATGCGGATCC
p618
g2
(g6
S'\xb8\x14\xbdw\xc7n\x8e?'
p619
tp620
Rp621
tp622
a(VGATGCGGATCCGGGCCTTTC
p623
g2
(g6
S'\xfe\xc0\x1d\xf4\xe1c\xa1?'
p624
tp625
Rp626
tp627
a(VAAAACTGGAAGGAATGTTTA
p628
g2
(g6
S'\xb1\xdd\xec\xf8\xf7e\xa4?'
p629
tp630
Rp631
tp632
a(VTCGAATCTGAGCAAAGGCAC
p633
g2
(g6
S'\x0f\x95\x9f\x844K\xe0?'
p634
tp635
Rp636
tp637
a(VCGAGATCAAGTTGTACGTTA
p638
g2
(g6
S'\xc5/\x01gE\xae\xb3?'
p639
tp640
Rp641
tp642
a(VACTTATTGAGAGAGAATATT
p643
g2
(g6
S'\xadS\x10\xfc\xa2\xd6\xc4?'
p644
tp645
Rp646
tp647
a(VCTTGTTTCTGAAGAAGGAGA
p648
g2
(g6
S'\xaa\x92\xa0v\xfal\xd7?'
p649
tp650
Rp651
tp652
a(VATACGTTTCTTAATAACAAC
p653
g2
(g6
S'H\xd6[\xaf[\x07\xe1?'
p654
tp655
Rp656
tp657
a(VAAAAATATGTAAACAGCATT
p658
g2
(g6
S'\x01\xb3\xf4\x01~\x16\x94?'
p659
tp660
Rp661
tp662
a(VCTAGTACATATGTTGAAAAA
p663
g2
(g6
S'(\xfb\x93j2\xb2\xd0?'
p664
tp665
Rp666
tp667
a(VCAAAACTGGAAGGAATGTTT
p668
g2
(g6
S'x\x15\x8c)\xdc\x1by?'
p669
tp670
Rp671
tp672
a(VACCATGTCGAATCTGAGCAA
p673
g2
(g6
S'\x9a\x90\xde\x89\xbc9\xd3?'
p674
tp675
Rp676
tp677
a(VAATCTTGACTCTGTGTAGTT
p678
g2
(g6
S'T^D>\\0\xb7?'
p679
tp680
Rp681
tp682
a(VTCATCTACGGCAAACTCTAT
p683
g2
(g6
S'\xc9\xbeu\x0f\x1a\x8b\xb4?'
p684
tp685
Rp686
tp687
a(VTACTATAGTCTTCATGTGCT
p688
g2
(g6
S'\x8aB\xe4W 8\xaa?'
p689
tp690
Rp691
tp692
a(VTTTCTTGCATAAACCTAAAA
p693
g2
(g6
S'\xb8,\xa3\xb4\xde\xbf\xc2?'
p694
tp695
Rp696
tp697
a(VTTAAAAATGAAACAGGAAGA
p698
g2
(g6
S'(\x00\x9ek\x9a\x82\xd3?'
p699
tp700
Rp701
tp702
a(VTTCTTAATAACAACTGGACT
p703
g2
(g6
S'S\x12\x81\x06u\xf3\xb9?'
p704
tp705
Rp706
tp707
a(VTTCAAACGCTAAATCAAGCT
p708
g2
(g6
S'*\xae\xc2\x17:7\xb9?'
p709
tp710
Rp711
tp712
a(VATAAATAATGAGAGGTATTC
p713
g2
(g6
S'\x99[zd\x0e*\xba?'
p714
tp715
Rp716
tp717
a(VAAACATGATATCTAAGTTAA
p718
g2
(g6
S'}\x90\x86\xcf\xadB\x9a?'
p719
tp720
Rp721
tp722
a(VCTTTCAACCACCTTTACAAT
p723
g2
(g6
S'\xefn5P\xb8\xb5\xd2?'
p724
tp725
Rp726
tp727
a(VTGTGGAGAACGTCTACAATT
p728
g2
(g6
S"\xff'\x1c\xcd\xd3\xb1\xa6?"
p729
tp730
Rp731
tp732
a(VTCTGCAGACATTTCCAAAAA
p733
g2
(g6
S'\xe4\xf1T\x8a\x94\x1b\xb2?'
p734
tp735
Rp736
tp737
a(VCTCTTTAAACAAACTATTGC
p738
g2
(g6
S'%g\x93\x89|\x13\xae?'
p739
tp740
Rp741
tp742
a(VGCTCTAACAAGCTCTCTTTC
p743
g2
(g6
S'h\xae\xf4V4\x88\xb7?'
p744
tp745
Rp746
tp747
a(VGCCTTGTTTCTTTCCTCTCT
p748
g2
(g6
S'9\xe6#\xc6\xbe\xa6\xa2?'
p749
tp750
Rp751
tp752
a(VTTATTTAGTCGTGTGCCAAA
p753
g2
(g6
S'\xeb\x05\x92\xbc\xe2\xf5\xe3?'
p754
tp755
Rp756
tp757
a(VTTGTACGTTATGGGTGTATT
p758
g2
(g6
S'\x02`X\xd8\xb5\xb8\x80?'
p759
tp760
Rp761
tp762
a(VTATTGATGATAAGCTGAAAA
p763
g2
(g6
S'\xe0\\\x08\xe1\xed\x9b\xbe?'
p764
tp765
Rp766
tp767
a(VTGCCTTGTTTCTTTCCTCTC
p768
g2
(g6
S'f\xfb\x95p\x16f\x81?'
p769
tp770
Rp771
tp772
a.