(lp0
(VCGAGATGTGATGAAGGAGAT
p1
cnumpy.core.multiarray
scalar
p2
(cnumpy
dtype
p3
(S'f8'
p4
I0
I1
tp5
Rp6
(I3
S'<'
p7
NNNI-1
I-1
I0
tp8
bS'd\xf3\xe0\n\x02M\xc5?'
p9
tp10
Rp11
tp12
a(VGCCCTCTGTGTGCTCAAGGG
p13
g2
(g6
S'\xc2\xd5v\x1d\xeeF\xcf?'
p14
tp15
Rp16
tp17
a(VCTCATGGACTAATTATGGAC
p18
g2
(g6
S'\xeaSY\xd7\x129\xb6?'
p19
tp20
Rp21
tp22
a(VCTAGAATGACCAGTCAACAG
p23
g2
(g6
S'4\xb0yH=\x13\xe7?'
p24
tp25
Rp26
tp27
a(VGTATAATCCAAAGATGGTCA
p28
g2
(g6
S'\t\xd4[6L\xea\xd3?'
p29
tp30
Rp31
tp32
a(VTGGATTATACTGCCTGACCA
p33
g2
(g6
S"\x1f\x86\xac' q\xdd?"
p34
tp35
Rp36
tp37
a(VAGCTGCTCACCACGACGCCA
p38
g2
(g6
S'a\x15\xd2\x8e\xd9!\xe6?'
p39
tp40
Rp41
tp42
a(VCAGGCAGTATAATCCAAAGA
p43
g2
(g6
S'\xa4\xfaM\xaf4\xb3\xcb?'
p44
tp45
Rp46
tp47
a(VTCGAGATGTGATGAAGGAGA
p48
g2
(g6
S'\x95\x7f\xc5\xcb\xe7\x1d\xd1?'
p49
tp50
Rp51
tp52
a(VTAGCCCTCTGTGTGCTCAAG
p53
g2
(g6
S'1\x8b\x0cO\x08\xcd\xb5?'
p54
tp55
Rp56
tp57
a(VAATAAATCAAGGTCATAACC
p58
g2
(g6
S'W\xc6&\xfc\xc9\xcd\xc2?'
p59
tp60
Rp61
tp62
a(VGTTATGGCGACCCGCAGCCC
p63
g2
(g6
S'\xf0hq3\xcd\xd5\xbf?'
p64
tp65
Rp66
tp67
a(VATTATGCTGAGGATTTGGAA
p68
g2
(g6
S'q\x1f\xc3\xa7\\\x08\xc1?'
p69
tp70
Rp71
tp72
a(VCTTATATCCAACACTTCGTG
p73
g2
(g6
S'_\x85$K\x97\x92\xd7?'
p74
tp75
Rp76
tp77
a(VAGCCCCCCTTGAGCACACAG
p78
g2
(g6
S'\xab\x08\xb3\xe0\xb0\x1a\xd0?'
p79
tp80
Rp81
tp82
a(VCACAGAGGGCTACAATGTGA
p83
g2
(g6
S'\x1b7\xbb\tL\x94\xb1?'
p84
tp85
Rp86
tp87
a(VGAAAGGGTGTTTATTCCTCA
p88
g2
(g6
S'A\x05H\xb3\x00M\xc5?'
p89
tp90
Rp91
tp92
a(VCTTCTAGAATGTCTTGATTG
p93
g2
(g6
S'\xe1\x0e\x8dT\x03@\xb2?'
p94
tp95
Rp96
tp97
a(VGGGGACATAAAAGTAATTGG
p98
g2
(g6
S'u\x84\xf2\x8f\xd5u\xe0?'
p99
tp100
Rp101
tp102
a(VGCCCCCCTTGAGCACACAGA
p103
g2
(g6
S'\x0f\xe8\x84\x84\xb31\xe3?'
p104
tp105
Rp106
tp107
a(VTCACCACGACGCCAGGGCTG
p108
g2
(g6
S'\xa5\xc4\x80\xb5\x02t\xc6?'
p109
tp110
Rp111
tp112
a(VGTAGCCCTCTGTGTGCTCAA
p113
g2
(g6
S'\xd2w\xafA\xfc\xef\xe7?'
p114
tp115
Rp116
tp117
a(VAGCCCTCTGTGTGCTCAAGG
p118
g2
(g6
S'\xa2\xc6E4\x08S\xc7?'
p119
tp120
Rp121
tp122
a(VACTAGAATGACCAGTCAACA
p123
g2
(g6
S'\x90u\x06\x80\t@\xde?'
p124
tp125
Rp126
tp127
a(VTCTCTCAACTTTAACTGGAA
p128
g2
(g6
S'\x9dY\x10\x9f{\\\xb5?'
p129
tp130
Rp131
tp132
a(VGTGCTTTGATGTAATCCAGC
p133
g2
(g6
S'Ott\x947\xfb\xe2?'
p134
tp135
Rp136
tp137
a(VTCTTGCTCGAGATGTGATGA
p138
g2
(g6
S'\x85+\x1c\x18\xab\x13\xb9?'
p139
tp140
Rp141
tp142
a(VCAGATTAGTGATGATGAACC
p143
g2
(g6
S'\xfe\xe2u\xa4\xca\xd5\xcd?'
p144
tp145
Rp146
tp147
a(VGAAGTATTCATTATAGTCAA
p148
g2
(g6
S'\xa4\x16k4\x90\xf9\xde?'
p149
tp150
Rp151
tp152
a(VCACCACGACGCCAGGGCTGC
p153
g2
(g6
S'ZP6\xea\xc3\xa8{?'
p154
tp155
Rp156
tp157
a(VAGGGCTGCGGGTCGCCATAA
p158
g2
(g6
S'\xe9jN\x05\xac\xba\xae?'
p159
tp160
Rp161
tp162
a(VCTGTCCATAATTAGTCCATG
p163
g2
(g6
S" K\xc6\x01Y'\xd6?"
p164
tp165
Rp166
tp167
a(VAAAATCTACAGTCATAGGAA
p168
g2
(g6
S'A7\x0b\xe6u\xe5\xa3?'
p169
tp170
Rp171
tp172
a(VTAGGTATGCAAAATAAATCA
p173
g2
(g6
S'KznZV\x85\xa0?'
p174
tp175
Rp176
tp177
a(VAGACTTTGCTTTCCTTGGTC
p178
g2
(g6
S'\xf0\xbb\x98O\x1eb\xb0?'
p179
tp180
Rp181
tp182
a(VGAGCTGCTCACCACGACGCC
p183
g2
(g6
S'\x1a\x1c{\xaf\x87\xda\xc1?'
p184
tp185
Rp186
tp187
a(VGATGTGATGAAGGAGATGGG
p188
g2
(g6
S'\xf0=)\x817\x1e\xe5?'
p189
tp190
Rp191
tp192
a(VAACTAGAATGACCAGTCAAC
p193
g2
(g6
S'\x07\xdb4(-\xeb\xbd?'
p194
tp195
Rp196
tp197
a(VAAAGTAATTCACTTACAGTC
p198
g2
(g6
S'\xe0\xd4#\xe7\xa6\xc8\x93?'
p199
tp200
Rp201
tp202
a(VTGAAAGGATATAATTGACAC
p203
g2
(g6
S'\x13\x9f\x8c\x08\xfe\xeb\xc8?'
p204
tp205
Rp206
tp207
a(VGCTTATATCCAACACTTCGT
p208
g2
(g6
S'rq^\xe0\x15\x08\xe0?'
p209
tp210
Rp211
tp212
a(VTTATGCTGAGGATTTGGAAA
p213
g2
(g6
S'[O\x84?\x89\xa0\xe8?'
p214
tp215
Rp216
tp217
a(VCAAAGATGGTCAAGGTCGCA
p218
g2
(g6
S'\xff\xcfEi\x8dF\xb2?'
p219
tp220
Rp221
tp222
a(VAAAAGGACCCCACGAAGTGT
p223
g2
(g6
S'\x87\x86\xebo\x0ey\xb7?'
p224
tp225
Rp226
tp227
a(VAAATCCTCAGCATAATGATT
p228
g2
(g6
S'\x01s\xcf\xe8~\xb6\xa6?'
p229
tp230
Rp231
tp232
a(VTATTCCTCATGGACTAATTA
p233
g2
(g6
S'\xd2y\x1d\t\xe5\x91\xa1?'
p234
tp235
Rp236
tp237
a(VTGACTATAATGAATACTTCA
p238
g2
(g6
S'\xd3Q9\xe6o\x94\xcf?'
p239
tp240
Rp241
tp242
a(VTGAAGTATTCATTATAGTCA
p243
g2
(g6
S's\xd0\xc0\xf0\x93h\x94?'
p244
tp245
Rp246
tp247
a(VAATGCAGACTTTGCTTTCCT
p248
g2
(g6
S'\xfe\xa3\x8d(\x8f\x9c\xad?'
p249
tp250
Rp251
tp252
a(VGATGATCTCTCAACTTTAAC
p253
g2
(g6
S'\xdd\x1ef*"\xb5\xd1?'
p254
tp255
Rp256
tp257
a(VATTCCAGACAAGTTTGTTGT
p258
g2
(g6
S':\x8d\xf1\xb7\xf6\xeb\xb1?'
p259
tp260
Rp261
tp262
a(VCATACCTAATCATTATGCTG
p263
g2
(g6
S'2\xcb\x15\x13\xd8\x92\xd2?'
p264
tp265
Rp266
tp267
a(VACAGGGGACATAAAAGTAAT
p268
g2
(g6
S'\xb8\xecJ\xaa:\xb4\xd0?'
p269
tp270
Rp271
tp272
a(VTATCCTACAACAAACTTGTC
p273
g2
(g6
S'\xd2\x03\x96\x91\xb72\xb2?'
p274
tp275
Rp276
tp277
a(VGGCTTATATCCAACACTTCG
p278
g2
(g6
S']\xea"\xb02\r\xc2?'
p279
tp280
Rp281
tp282
a(VCTTGCGACCTTGACCATCTT
p283
g2
(g6
S'\xfd-\x8f\xa2\xbf\xb1\xb2?'
p284
tp285
Rp286
tp287
a(VTTAACAGCTTGCTGGTGAAA
p288
g2
(g6
S'\x11\x8f\xf4\x04\xea\x16\xaf?'
p289
tp290
Rp291
tp292
a(VTAATCATTATGCTGAGGATT
p293
g2
(g6
S'\x15\x9b\xf9O\xe3P\x8e?'
p294
tp295
Rp296
tp297
a(VCTGATAAAATCTACAGTCAT
p298
g2
(g6
S'.\xaf\x87\xef\xf7\x9d\xb1?'
p299
tp300
Rp301
tp302
a(VTTGACTATAATGAATACTTC
p303
g2
(g6
S'M\x80\xe51\x98\xf9\xa6?'
p304
tp305
Rp306
tp307
a(VTGTAGCCCTCTGTGTGCTCA
p308
g2
(g6
S'\x13\xecd\x15\xdbIy?'
p309
tp310
Rp311
tp312
a(VTAAATTCTTTGCTGACCTGC
p313
g2
(g6
S'=\xc2\xb7P\xfc\x8f\x99?'
p314
tp315
Rp316
tp317
a(VGTTTGTGTCATTAGTGAAAC
p318
g2
(g6
S'-\xf3\xb6\xcf\xb3\xa4\xb9?'
p319
tp320
Rp321
tp322
a.