(lp0
(VACACTGCCGAGCGATGAGGA
p1
cnumpy.core.multiarray
scalar
p2
(cnumpy
dtype
p3
(S'f8'
p4
I0
I1
tp5
Rp6
(I3
S'<'
p7
NNNI-1
I-1
I0
tp8
bS'\x99\n\xec\x8f\x02\x94\xcf?'
p9
tp10
Rp11
tp12
a(VAAGGTGAAGGAGGATGCGGC
p13
g2
(g6
S'\x9b\xdf\xd5\x17\xae\xb3\xb9?'
p14
tp15
Rp16
tp17
a(VGAAAAGATAGGTCACTGACC
p18
g2
(g6
S'&\xc2\xee\x8a\xcc\x9b\xa6?'
p19
tp20
Rp21
tp22
a(VGCAAGTCACTGAGTGCAGAA
p23
g2
(g6
S'g\xd6\x15\xdd\xc1b\xe3?'
p24
tp25
Rp26
tp27
a(VGCATTGGTAAGCGCACAGGA
p28
g2
(g6
S'\x9b\xcc;\xf8\xd08\xed?'
p29
tp30
Rp31
tp32
a(VAAGACTGGCGCATGGTCCAC
p33
g2
(g6
S'\xd2\xe5t)\x13V\xa6?'
p34
tp35
Rp36
tp37
a(VCCCGCCTAGTACCTACCTGT
p38
g2
(g6
S'\xbaTV\xe7\xd9\xeb\xc7?'
p39
tp40
Rp41
tp42
a(VCCAACACCAGGTCACGGCTC
p43
g2
(g6
S'\xff\x94\xe84$Q\xb4?'
p44
tp45
Rp46
tp47
a(VAGCCAGGCAGCCCGCATCAC
p48
g2
(g6
S'\xd6\x93)\x81\xf5\x01\x98?'
p49
tp50
Rp51
tp52
a(VTTGTTGCCATCCTCATCGCT
p53
g2
(g6
S'\xe9\x1d\xd4i\xd0\x8c\xe2?'
p54
tp55
Rp56
tp57
a(VGTGGGCAGTTTAGCAATGAG
p58
g2
(g6
S'\xb9\xd0\xb3^\xaes\xce?'
p59
tp60
Rp61
tp62
a(VTTCACATTATGACCAACACC
p63
g2
(g6
S'\xb2\x8d\xbc\xcf\x98\x99\xd8?'
p64
tp65
Rp66
tp67
a(VAGATGGCACAGGTCTTTGAG
p68
g2
(g6
S'y^\xd1}\x9e\xce\xe1?'
p69
tp70
Rp71
tp72
a(VGGTGTTGGTCATAATGTGAA
p73
g2
(g6
S'\x96\x0c\xcdc7-\xd8?'
p74
tp75
Rp76
tp77
a(VCTCAGCTGTATCCTACAGGT
p78
g2
(g6
S'\x91\x1dj\xc7L\x03\xd2?'
p79
tp80
Rp81
tp82
a(VTGTGCATCGTGGCTGTCCTG
p83
g2
(g6
S'\xfa\xab\x83`\xaeU\xe0?'
p84
tp85
Rp86
tp87
a(VTCACTGAGTGCAGAATGGCT
p88
g2
(g6
S'wS4P\xc5\xbf\xc3?'
p89
tp90
Rp91
tp92
a(VCCATGAGTGCAACCAGCGGT
p93
g2
(g6
S'\xaf\x14\ts\xa9\xb4\xd9?'
p94
tp95
Rp96
tp97
a(VTGCTGAGTGAATATTCCATG
p98
g2
(g6
S'7;\x1a\xd3\x88C\xe1?'
p99
tp100
Rp101
tp102
a(VCCTGAGCCGTGACCTGGTGT
p103
g2
(g6
S'\xbfx\xa6\x9a\xd0\x99\xcc?'
p104
tp105
Rp106
tp107
a(VTGGCCTCAGCTGTATCCTAC
p108
g2
(g6
S'\x82`IJ^\xc3\xdb?'
p109
tp110
Rp111
tp112
a(VTGGCATGGGCAGGTTGGACG
p113
g2
(g6
S'\xfd\xb3\xbe\xff\x91\x14\xc3?'
p114
tp115
Rp116
tp117
a(VGCGGTGTCTTGAAAAGGTGA
p118
g2
(g6
S'\x8e\xa3y\xcd\x99W\xd4?'
p119
tp120
Rp121
tp122
a(VTTATGACCAACACCAGGTCA
p123
g2
(g6
S'\xccQ\xf4~\xab~\xe3?'
p124
tp125
Rp126
tp127
a(VCAAAGATATCTTCAGCAGTG
p128
g2
(g6
S'\xf7M\x1d\x88\x85\n\xbc?'
p129
tp130
Rp131
tp132
a(VGTGTCTTGAAAAGGTGAAGG
p133
g2
(g6
S'E7\x86\xf6m\xe5\xdb?'
p134
tp135
Rp136
tp137
a(VTGAAAAGGTGAAGGAGGATG
p138
g2
(g6
S'\x8c\x80\xd0\x9b\x06L\xe4?'
p139
tp140
Rp141
tp142
a(VGCTTCTTCATGCAGGCTGTG
p143
g2
(g6
S'\r\xe2\xe7\xe5\xceq\xd4?'
p144
tp145
Rp146
tp147
a(VAGTATGAAGTACCCGTCCAA
p148
g2
(g6
S'.d\x8aF2|\xd1?'
p149
tp150
Rp151
tp152
a(VAATACACAGTGCCTGTGATG
p153
g2
(g6
S'\x1d>\xd7a\xc6@\xc3?'
p154
tp155
Rp156
tp157
a(VAGCCGTGTTTGCTGTTCTCA
p158
g2
(g6
S'\xbb\x1bK%*\xbe\x8b?'
p159
tp160
Rp161
tp162
a(VAGCATTAAGGAGTGAAGGGA
p163
g2
(g6
S'\x14\xc5\x04e\xb5!\xc0?'
p164
tp165
Rp166
tp167
a(VATAAAGCGCATTCTCCAGGT
p168
g2
(g6
S'|\x89lx^\xd0\xd8?'
p169
tp170
Rp171
tp172
a(VTCTGGCATGGGCAGGTTGGA
p173
g2
(g6
S'\xa7\xc7\xe4D#\x0e\xd3?'
p174
tp175
Rp176
tp177
a(VAGCCGGTCAGCTCTGCACAC
p178
g2
(g6
S'\xe1t7\xf4\xbbU\xb9?'
p179
tp180
Rp181
tp182
a(VTGGTCGGCATCGTGCTATGG
p183
g2
(g6
S'v-\x12\xf4\xc62\xb6?'
p184
tp185
Rp186
tp187
a(VAGGAGTTACTCACCCATGAA
p188
g2
(g6
S'^d\xd2Dw\xc7\x9e?'
p189
tp190
Rp191
tp192
a(VGCAAACACTGCCGAGCGATG
p193
g2
(g6
S'j\x7f#^\xf7\xc6\xd0?'
p194
tp195
Rp196
tp197
a(VGATCATGAGCTGCAGCTCCA
p198
g2
(g6
S"K'|0\xd5\xde\xdd?"
p199
tp200
Rp201
tp202
a(VGGAAGGTGAAACTGACCTGT
p203
g2
(g6
S'|9\xf3xH\xbb\xd1?'
p204
tp205
Rp206
tp207
a(VACAGCTGAGGCCAAAAACCA
p208
g2
(g6
S'\x8c\\?\x16\x05N\xd6?'
p209
tp210
Rp211
tp212
a(VTCACCAGCATTAAGGAGTGA
p213
g2
(g6
S'A\xa2\x8fM\x80\x8e\xc9?'
p214
tp215
Rp216
tp217
a(VAGTCTGCATACCTGTCCCGC
p218
g2
(g6
S'\xcd\xcb\xd8\x05\xc0\x8e\xd0?'
p219
tp220
Rp221
tp222
a(VACCCTCTGGCATGGGCAGGT
p223
g2
(g6
S'\x8fS\xe6y\x7f\xa2\x83?'
p224
tp225
Rp226
tp227
a(VTGAACAGGACTCTGAGCCAG
p228
g2
(g6
S'\xa05`\x0c\xbcE\xc7?'
p229
tp230
Rp231
tp232
a(VCCAGAGCACAAGGAGGCTGA
p233
g2
(g6
S'?\x08\xad\xf9\x84\xfb\xa6?'
p234
tp235
Rp236
tp237
a(VCCTCTTGGAGAACATCGCCA
p238
g2
(g6
S'\xc3\x9aXM\xc8\xd8\xe8?'
p239
tp240
Rp241
tp242
a(VAGCCTTGAGAACAGCAAACA
p243
g2
(g6
S'\xc061\x10Cl\xc2?'
p244
tp245
Rp246
tp247
a(VATTGTTAGAGGAGCAGCACA
p248
g2
(g6
S'J \x9f<\x9e\xe9\xce?'
p249
tp250
Rp251
tp252
a(VCTGTTGGAAAACCTCGATTG
p253
g2
(g6
S'\xa6d\xb0\x17G;\xa1?'
p254
tp255
Rp256
tp257
a(VTTCTGGTCGGCATCGTGCTA
p258
g2
(g6
S'\x0eU\xfe\xa3\xd9\xb6\xae?'
p259
tp260
Rp261
tp262
a(VCAGCTGAGGCCAAAAACCAG
p263
g2
(g6
S"\x86\x8075\xb4'\xd8?"
p264
tp265
Rp266
tp267
a(VGATGGAACCCTTCTCATCTG
p268
g2
(g6
S'>;\x01\xc9K\x89\xda?'
p269
tp270
Rp271
tp272
a(VTGCTGGGGAATAGTACCTGG
p273
g2
(g6
S'^\rq(S\xb7\xe6?'
p274
tp275
Rp276
tp277
a(VAGAATGGCTAGGAGTGCTTA
p278
g2
(g6
S'\xdd\xc2\x04\x7f\t&\xa8?'
p279
tp280
Rp281
tp282
a(VTACAGAAGTAGGCAAGCCGG
p283
g2
(g6
S'\x01\xdc\x9e\xb3\x14\xef\xce?'
p284
tp285
Rp286
tp287
a(VTAGCCTGTGCCTGTGCATCG
p288
g2
(g6
S'\x9d\xea\xb4aY\xd8\xc7?'
p289
tp290
Rp291
tp292
a(VAGACTGGCCCTGCAGCTGGA
p293
g2
(g6
S'\xec\xa9+X\x10\xce\xdc?'
p294
tp295
Rp296
tp297
a(VCTTGCACTCTCATCTCCCGA
p298
g2
(g6
S'\xa8mQ\xd3\x1fK\xeb?'
p299
tp300
Rp301
tp302
a(VGCACTGTTACCCTCTGGCAT
p303
g2
(g6
S'\xfa\x92\xa4\xa3\xd0M\xe7?'
p304
tp305
Rp306
tp307
a(VGGCTTGCCTACTTCTGTACA
p308
g2
(g6
S'\x16g#\x0f\xf8\x87\xd5?'
p309
tp310
Rp311
tp312
a(VGCAATAGGCAAGTGGTCAAG
p313
g2
(g6
S'\x16N\x14\x19\x04\x93\xd9?'
p314
tp315
Rp316
tp317
a(VTCAGCTGCAAGCGTTCTGGT
p318
g2
(g6
S'\xf0\x835\xc65+\xe5?'
p319
tp320
Rp321
tp322
a(VGTGTACAGAAGTAGGCAAGC
p323
g2
(g6
S'\xbfm\xf4\xd1\xac\xc3\xd1?'
p324
tp325
Rp326
tp327
a(VCAGACATACCTGCTGAGTGA
p328
g2
(g6
S'\xa4m\x85{(\xbb\xc5?'
p329
tp330
Rp331
tp332
a(VCCAAGGCACTAGGACAGCAC
p333
g2
(g6
S'7\x92H\xfe\x07(\xbb?'
p334
tp335
Rp336
tp337
a(VCCTGTGTATCCAGAAACTGC
p338
g2
(g6
S'\xfe]\xbb\x8e\x1a\x0e\xbb?'
p339
tp340
Rp341
tp342
a(VCAAACAGTACGACCAACCGC
p343
g2
(g6
S'g\x06\x8cV7\x9c\xdb?'
p344
tp345
Rp346
tp347
a(VTGGGAGCACTGGGAGCAGAA
p348
g2
(g6
S'p\xbb\x05OwW\xb1?'
p349
tp350
Rp351
tp352
a(VCCAGCGAGTCATGAAAAGAT
p353
g2
(g6
S'\x17\xd8\x05\xb1\xa3\xb9\xd5?'
p354
tp355
Rp356
tp357
a(VGCTGCAGCTCCAAGGAAGAC
p358
g2
(g6
S't\xb9\x1c\n\xfa\xc6\xd4?'
p359
tp360
Rp361
tp362
a(VCTGTCTCTTCTCCAGGAGCT
p363
g2
(g6
S'+\xcd\x85H\x88\x1d\xa1?'
p364
tp365
Rp366
tp367
a(VTATCACAGAACTTGGACCAG
p368
g2
(g6
S'\xbf\x9a\xe2\xf5\x89\x91\xc3?'
p369
tp370
Rp371
tp372
a(VTCTGTCATCTTGCAGCGTTG
p373
g2
(g6
S'!J\x1e\xc9\x91\x00\xe0?'
p374
tp375
Rp376
tp377
a(VAAGGGACAGCAGAAACTGGT
p378
g2
(g6
S'\xfd\xb6\xbdc\xcc\xab\xd5?'
p379
tp380
Rp381
tp382
a(VGGCAGGCATGATAGTGCCGC
p383
g2
(g6
S'\xb0\x9a\xc8{\xbe\xae\xb4?'
p384
tp385
Rp386
tp387
a(VCACCAGCATTAAGGAGTGAA
p388
g2
(g6
S'\x0f\xaa\x81\xa4W\x1c\xc5?'
p389
tp390
Rp391
tp392
a(VTCCAACCTGCCCATGCCAGA
p393
g2
(g6
S'V\n|\xa3(\xa0\xe9?'
p394
tp395
Rp396
tp397
a(VGCAGGACAGCCACGATGCAC
p398
g2
(g6
S'L\x08\xf0\xf2\x81\x18\xcf?'
p399
tp400
Rp401
tp402
a(VGTGGCGTACTGCACGTGTCG
p403
g2
(g6
S'\xdf\xfb\x83\x97\xcc\xb0\xc0?'
p404
tp405
Rp406
tp407
a(VCTCTACCTGAAACATGAACA
p408
g2
(g6
S'\x9e\xf5\x1c\x9db\xb1\xcc?'
p409
tp410
Rp411
tp412
a(VTCAGAAGCCGCAGATGAGAA
p413
g2
(g6
S'\x1ePW\xf3\xf3\xe1\xe0?'
p414
tp415
Rp416
tp417
a(VTATGGTGGTAGCCAAGCTCC
p418
g2
(g6
S'N\x11\x8c\xf5\xa0\xaf\xac?'
p419
tp420
Rp421
tp422
a(VGAGGAGCGGATTCCTACTGT
p423
g2
(g6
S'3\x17\x1bg\x91\xf5\x97?'
p424
tp425
Rp426
tp427
a(VCACAGCGAATCAGATCTTCC
p428
g2
(g6
S'\xc5\xdc\xe3\xbcgs\xa1?'
p429
tp430
Rp431
tp432
a(VTAAGCAATTCATCCTCTCCA
p433
g2
(g6
S'\xc40\xaeX\xc6\xfd\xbe?'
p434
tp435
Rp436
tp437
a(VGTGAAGGCACTGTTACCCTC
p438
g2
(g6
S'\x86\xec\xf68W\xbd\xd2?'
p439
tp440
Rp441
tp442
a(VGCAGCCATGAGTGCAACCAG
p443
g2
(g6
S'\x8c9\xb4:\xccV\xea?'
p444
tp445
Rp446
tp447
a(VATCCTGTGTGCAGAGCTGAC
p448
g2
(g6
S'\x07\x1d[l\xe6R\xcc?'
p449
tp450
Rp451
tp452
a(VGAGGGTGTGCTGCTAGTTGG
p453
g2
(g6
S'j\xa9\x7f\xba\xc8\x97\xc7?'
p454
tp455
Rp456
tp457
a(VGAGGATGCGGCAGGTAAGCC
p458
g2
(g6
S'\xd4\xc4\x1c\xb3\xd5\xad\xa1?'
p459
tp460
Rp461
tp462
a(VCCTTACCTCCCTCTACAGCC
p463
g2
(g6
S'q\xd1\xeca\xffZ\xdf?'
p464
tp465
Rp466
tp467
a(VCGATGACCCAGAGCACAAGG
p468
g2
(g6
S'\xea\x1d\xed\x06q\x88\xe3?'
p469
tp470
Rp471
tp472
a(VTTGCACTCTCATCTCCCGAG
p473
g2
(g6
S'\xcd\xb6TW\x9e\xcd\xe0?'
p474
tp475
Rp476
tp477
a(VCGTGTCTTCACAGTACTCTG
p478
g2
(g6
S'c^!U\x0fV\xe2?'
p479
tp480
Rp481
tp482
a(VGTCATCACGTGTGAGCCACA
p483
g2
(g6
S'=H\xe2\xf4\x14*\xe2?'
p484
tp485
Rp486
tp487
a(VTCCCAGAACCGCATCGTGGA
p488
g2
(g6
S'-<g\xbfy\xe7\xb2?'
p489
tp490
Rp491
tp492
a(VAAGGATACAGCGCTCTGCAG
p493
g2
(g6
S'9\xb9\xa7\xf7\xc9\x9b\xc8?'
p494
tp495
Rp496
tp497
a(VGTTGTGGCCCTGGCAGGTGG
p498
g2
(g6
S'\xf1\xbe\x184nV\xcc?'
p499
tp500
Rp501
tp502
a(VACTTGCACTCTCATCTCCCG
p503
g2
(g6
S'\x19\xa0\xe1\x8b\xfe\x89\xdf?'
p504
tp505
Rp506
tp507
a(VAAATGCCAGGAAGCTACTGC
p508
g2
(g6
S'\xc9\xc2m\xf3\x1a\xc9\xb6?'
p509
tp510
Rp511
tp512
a(VCAGACATGAGTTCCTGACCT
p513
g2
(g6
S'_\xcbG,\x0b\xa1\xcb?'
p514
tp515
Rp516
tp517
a(VGCGCTCTGGTGTATGGCTGG
p518
g2
(g6
S'\xc8\xe6\xb7\xa3\x90H\xa2?'
p519
tp520
Rp521
tp522
a(VTAAACTGCCCACCTCAGTCC
p523
g2
(g6
S'\xbe\xe3\xc5\xd6\xf4\x1f\x94?'
p524
tp525
Rp526
tp527
a(VAGGCACTAGGACAGCACAGG
p528
g2
(g6
S'\xa2\xad\x150+\x9b\xd6?'
p529
tp530
Rp531
tp532
a(VACAGACATGAGTTCCTGACC
p533
g2
(g6
S'\xae\x97%\x88Z\x9d\xa9?'
p534
tp535
Rp536
tp537
a(VGGAGTTACTCACCCATGAAA
p538
g2
(g6
S'\xd8\r\x18z}\xa3\xe2?'
p539
tp540
Rp541
tp542
a(VACTGCCCTTATCAGGTCTCC
p543
g2
(g6
S'\x1dj\x8d\xa1\x99\xb0\xb1?'
p544
tp545
Rp546
tp547
a(VCCCACACCTGAGCCGTGACC
p548
g2
(g6
S'K\xc6\xdb\x91\x84\xd9\xb5?'
p549
tp550
Rp551
tp552
a(VATTGCGATGTCATTCACCCT
p553
g2
(g6
S'\x8e=/\xa0\r<\xc7?'
p554
tp555
Rp556
tp557
a(VGCTGGGGAAGAATTGGAGAA
p558
g2
(g6
S'\xdb\x98\xe3\x84%\xd8\xe9?'
p559
tp560
Rp561
tp562
a(VCTGGTCTTTCGATAAATGCC
p563
g2
(g6
S'\xb2n\x05\x12\xe9~\xca?'
p564
tp565
Rp566
tp567
a(VACCTCTACATCATGGGGCAA
p568
g2
(g6
S'\xc5\x05!\xd2\xcf\x11\xc5?'
p569
tp570
Rp571
tp572
a(VCTTGGCATAGACATCCAGAC
p573
g2
(g6
S'Ym\xe2\nF\x8a\xd9?'
p574
tp575
Rp576
tp577
a(VTAACACATGTCCCTGGACTG
p578
g2
(g6
S'\xb6\x96\x18\xb7\x10%\xc5?'
p579
tp580
Rp581
tp582
a(VTGCCTCCCAGAACCGCATCG
p583
g2
(g6
S'a&\x91J\x9f\xe0\xd4?'
p584
tp585
Rp586
tp587
a(VCAGTGGGGAAGGCTTCAGGC
p588
g2
(g6
S'\x99t\xe7\xcb\x03?\xde?'
p589
tp590
Rp591
tp592
a(VCCCTTATGCACGTCTGTGTG
p593
g2
(g6
S'OJ\x85\xd4\x94\xf4\xc0?'
p594
tp595
Rp596
tp597
a(VACAGGTCATCTTAATGAGCC
p598
g2
(g6
S'm!#\xfb{\x84\xc5?'
p599
tp600
Rp601
tp602
a(VACAGAAGTAGGCAAGCCGGC
p603
g2
(g6
S'\xe24L\x86F\xf4\xe7?'
p604
tp605
Rp606
tp607
a(VCTCCAAGGAAGACTGGCGCA
p608
g2
(g6
S'*g\xf2DEY\xc1?'
p609
tp610
Rp611
tp612
a(VAGGCAGCAGCAGCAGCAAGC
p613
g2
(g6
S'w\x95\xff\xda\x0bV\xc5?'
p614
tp615
Rp616
tp617
a(VGGTTCTGGGAGGCAGCCAGC
p618
g2
(g6
S'\x0f\xd1\xd9\xe34-\xc2?'
p619
tp620
Rp621
tp622
a(VGCAATTCATCCTCTCCAGGG
p623
g2
(g6
S'49\xdd\xfb\x19\xa3\xe2?'
p624
tp625
Rp626
tp627
a(VGGAGGATGCGGCAGGTAAGC
p628
g2
(g6
S'\xf7B\xce\xe9\x1c}\xba?'
p629
tp630
Rp631
tp632
a(VGCCCTTATGCACGTCTGTGT
p633
g2
(g6
S'\xe0\x9a\x8f\xf9\xed\xdc\xb2?'
p634
tp635
Rp636
tp637
a(VGTTCTTTAAATGGCTACAGG
p638
g2
(g6
S'\xde\xd6d-\x08\xfc\xdc?'
p639
tp640
Rp641
tp642
a(VGGCACTACTCACATTGTTAG
p643
g2
(g6
S'\x98\x85l\xdc?o\xd7?'
p644
tp645
Rp646
tp647
a(VACAGATCATAGAGATAAGCA
p648
g2
(g6
S'F\x81\xbf\x11=\x06\xd1?'
p649
tp650
Rp651
tp652
a(VGATTGGGACCTAGCAAGGAT
p653
g2
(g6
S'\xd8\xfe\xa5w\xb7s\xd9?'
p654
tp655
Rp656
tp657
a(VGAACTTCCAGAGGAGGAGGG
p658
g2
(g6
S'e\xf6\xd2D:\xa4\xc7?'
p659
tp660
Rp661
tp662
a(VGTGAACAGGACTCTGAGCCA
p663
g2
(g6
S'P\x03\x8c\x82n\x9c\xb9?'
p664
tp665
Rp666
tp667
a(VAACAGAAGAACTTCCAGAGG
p668
g2
(g6
S'\x13+\x9e\xd8\x15\xc3\xbb?'
p669
tp670
Rp671
tp672
a(VCTGGCATGGGCAGGTTGGAC
p673
g2
(g6
S'(\x1c\xd2\x8ck\x9a\\?'
p674
tp675
Rp676
tp677
a(VAGACATGTTGACCCTTTCAT
p678
g2
(g6
S'\xf1\xe8-\xbb\xb3\xd8\xd6?'
p679
tp680
Rp681
tp682
a(VCTTTGCGTGAAGAGGAACCC
p683
g2
(g6
S'F\x11p\r\x0e\xa4\xca?'
p684
tp685
Rp686
tp687
a(VAAACTGCCCACCTCAGTCCA
p688
g2
(g6
S'7\xb6F 8p\xd5?'
p689
tp690
Rp691
tp692
a(VCTGTGTGGCGTCGTGAAGCA
p693
g2
(g6
S'\x9e\xec\x82\x9bn\xd4\xc2?'
p694
tp695
Rp696
tp697
a(VTCCAAAGGCAAGGTCCCCTC
p698
g2
(g6
S'\xfe\xf7\xef\xe0xU\xb7?'
p699
tp700
Rp701
tp702
a(VATGATGTAGAGGTGGCAATC
p703
g2
(g6
S'\x99\xc9\xc3\x84\xc9\xbb\xb0?'
p704
tp705
Rp706
tp707
a(VCATGGGATGAACCGGTCCGA
p708
g2
(g6
S'\xdff@\xa95\xce\xc9?'
p709
tp710
Rp711
tp712
a(VATACACAGTGCCTGTGATGC
p713
g2
(g6
S'K#\x08\x85x\x8c\xb2?'
p714
tp715
Rp716
tp717
a(VCAAGTGGTATGACATGCCAA
p718
g2
(g6
S'S(\xb2\xa6\x17$\xe5?'
p719
tp720
Rp721
tp722
a(VCATCCTCAACCAGGACCAGA
p723
g2
(g6
S'\xf7\xa6\x7f\xcfc\x82\xde?'
p724
tp725
Rp726
tp727
a(VGTAAGAAGGAAGAGGTGTTT
p728
g2
(g6
S'\xa0\xce\x89\xfb\x97=\xb8?'
p729
tp730
Rp731
tp732
a(VTCTTACTGAAAATGGGGACC
p733
g2
(g6
S'\xe7$\xd3"T\t\xaa?'
p734
tp735
Rp736
tp737
a(VGGCAGGTTGGACGGGGCAAT
p738
g2
(g6
S'\x00\x87\x11A#x\xb3?'
p739
tp740
Rp741
tp742
a(VTAGGGGTCCGTACTCAGCAT
p743
g2
(g6
S'/0!\xa2um\xd6?'
p744
tp745
Rp746
tp747
a(VGTCCAACCTGCCCATGCCAG
p748
g2
(g6
S'\xe4\xe1\xee\xc0\xc1]\xc0?'
p749
tp750
Rp751
tp752
a(VCAGTGAGTAGTGCCAAACCA
p753
g2
(g6
S'\x11m\xc2\x1b\xa4\x10\xe4?'
p754
tp755
Rp756
tp757
a(VTGAGCTGCTTCTCAAATCCT
p758
g2
(g6
S'\x0cB\xb3\xca\xd0\x01\xda?'
p759
tp760
Rp761
tp762
a(VGCTGGTCGTAAAGAACCCCA
p763
g2
(g6
S'\xa1\x11\xbd\xa3\xfen\xdf?'
p764
tp765
Rp766
tp767
a(VGTGTATCCAGAAACTGCAGG
p768
g2
(g6
S'H\xc8\xfe\x81\x8b\xa8\xe7?'
p769
tp770
Rp771
tp772
a(VCTCACACCTTCACCTACACG
p773
g2
(g6
S'a\xe2\xba"+\xb1\xe1?'
p774
tp775
Rp776
tp777
a(VGAACACCATCTACTGCAACG
p778
g2
(g6
S'\x8c\x89-:\xe2\x1b\xdf?'
p779
tp780
Rp781
tp782
a(VACTCTTGCCTAGCCCCGTGT
p783
g2
(g6
S'O*\xa5]\x08\x96\xcd?'
p784
tp785
Rp786
tp787
a(VTTAGCAGAGTCAGGGCATGT
p788
g2
(g6
S'\x0c\xbcI\xc2t\x90\xc5?'
p789
tp790
Rp791
tp792
a(VCACATGTCCCTGGACTGAGG
p793
g2
(g6
S'\x97\xfd\x01\xa9)\xd6\x9c?'
p794
tp795
Rp796
tp797
a(VTCATCGGCAGGATCATCAAA
p798
g2
(g6
S"\x83'\x80\xa4\x80+\xe7?"
p799
tp800
Rp801
tp802
a(VGGGAGGCAGCCAGCAGGTGG
p803
g2
(g6
S'J\xd5\x8a\xf7bF\xe0?'
p804
tp805
Rp806
tp807
a(VCAAGTGGTCAAGTGGTGAGC
p808
g2
(g6
S'\xaa\x7f\xef\xba\xa7@\xb2?'
p809
tp810
Rp811
tp812
a(VCGAGGGTGTGCTGCTAGTTG
p813
g2
(g6
S'uS\x8b\x07\xe2\xdc\xaa?'
p814
tp815
Rp816
tp817
a(VGATGATCTCCAGGAGGAGCA
p818
g2
(g6
S'\xa8\x8a\x11\xd8\x88_\xce?'
p819
tp820
Rp821
tp822
a(VACTCACCTGCAGGTAGTGGC
p823
g2
(g6
S'\x16\xd4\x82\xda\x19\xed\xc7?'
p824
tp825
Rp826
tp827
a(VCTCCTGGAGATCATCATCAG
p828
g2
(g6
S'\x02\x9d\xfd\x0ced\xd6?'
p829
tp830
Rp831
tp832
a(VACGGCCTTGAATGTAAAACA
p833
g2
(g6
S'J\xc3\x9d\xc9\x06\xab\xcc?'
p834
tp835
Rp836
tp837
a(VCAGAACCAGCCACTACCTGC
p838
g2
(g6
S'\x89N\xed\x11\x0c\x15\xd4?'
p839
tp840
Rp841
tp842
a(VCTCAAAACACTCAAGCACCC
p843
g2
(g6
S'\x0c\nF\xcftI\xd5?'
p844
tp845
Rp846
tp847
a(VTAGTTGGGGGCTGAGGAGCA
p848
g2
(g6
S'\xe3\xea\xbb\xb3Z\x86\x96?'
p849
tp850
Rp851
tp852
a(VGGATCATCAAAGGGAGAGGG
p853
g2
(g6
S'\xfab\x1f\xff-j\xdf?'
p854
tp855
Rp856
tp857
a(VCTGTCTCCACAGAGATGTTG
p858
g2
(g6
S'\xdb\xa9\xee\xce0\xee\xd0?'
p859
tp860
Rp861
tp862
a(VTCCCCAGACAAGCCTACAGT
p863
g2
(g6
S'w\xad\xe5\x17#\xe7\xca?'
p864
tp865
Rp866
tp867
a(VCCTCTCCTCGAGCCACTCGC
p868
g2
(g6
S'r\x8eS\xd7NR\xe5?'
p869
tp870
Rp871
tp872
a(VAACACTCAAGCACCCAGGTC
p873
g2
(g6
S'/\x16`\x01G`\x86?'
p874
tp875
Rp876
tp877
a(VGCTGTCCTAGTGCCTTGGTT
p878
g2
(g6
S'\xcd\x06\xe5\xf2)\xc4\xcf?'
p879
tp880
Rp881
tp882
a(VCCAAACCAGCCCCAAGAGAG
p883
g2
(g6
S'\xf7\xc5\x9b\xb8\xf9\x1f\xc8?'
p884
tp885
Rp886
tp887
a(VCAGTCTCCGTGTACAGAAGT
p888
g2
(g6
S'\xbb\x01"\xa1\x86\x1f\xc5?'
p889
tp890
Rp891
tp892
a(VCCTGCAGTTTCTGGATACAC
p893
g2
(g6
S'\n\x81x7\xf8=\xcb?'
p894
tp895
Rp896
tp897
a(VCGTGCTCATCAATGGGACAT
p898
g2
(g6
S'O\xc6L0\t\x08\xb0?'
p899
tp900
Rp901
tp902
a(VTTGTAACCGAATCTTTGGAT
p903
g2
(g6
S'\x8b\x88b\xf2\x06\x98\xad?'
p904
tp905
Rp906
tp907
a(VCATCTCGCAAGGTAGCATGG
p908
g2
(g6
S'h\xa1SF\x12\xb3\xd8?'
p909
tp910
Rp911
tp912
a(VCATCGCCAAGGCCACAATCG
p913
g2
(g6
S'`\x9f63\xc5\x1f\xc0?'
p914
tp915
Rp916
tp917
a(VCACCTCTACATCATGGGGCA
p918
g2
(g6
S'/\xbd\x8bd\x80%\x90?'
p919
tp920
Rp921
tp922
a(VAGGATGGGGAAAACCCCCAG
p923
g2
(g6
S'j\x1dR\x95\x81\x06\xe0?'
p924
tp925
Rp926
tp927
a(VGGTGGGCAGTTTAGCAATGA
p928
g2
(g6
S'\xd2\xfeX\x9f\xaa\xf6\xc0?'
p929
tp930
Rp931
tp932
a(VCATGCTGCACCAGAGGCAAG
p933
g2
(g6
S'\xdc$\xe8*;\x0f\xd2?'
p934
tp935
Rp936
tp937
a(VTGGTTGTGGGCAGCACTCCA
p938
g2
(g6
S'>\x06!\xdcA\xc5\xc6?'
p939
tp940
Rp941
tp942
a(VCCCCTACTATGCCCTGTGAG
p943
g2
(g6
S'\x1dt{\xdc\xc6\xe5\xdf?'
p944
tp945
Rp946
tp947
a(VACCTCATGCCCATCCTTGCT
p948
g2
(g6
S'\xaf\xc8\x03\x1f\xf0\xb1\xc0?'
p949
tp950
Rp951
tp952
a(VCCAAGAGGGAGTTCATCTCC
p953
g2
(g6
S'\xf9\x90\xe8Lw*z?'
p954
tp955
Rp956
tp957
a(VCCTGAATGGCAAAGTCGATG
p958
g2
(g6
S'P\x9a\xe2~{/\xbc?'
p959
tp960
Rp961
tp962
a(VCCCTCGAAGTGAGAGTGAGC
p963
g2
(g6
S'\xdb\xb7\xfa\xb4\x01\r\xa7?'
p964
tp965
Rp966
tp967
a(VCTGGTCGTAAAGAACCCCAA
p968
g2
(g6
S'ro<\xa7r\xcd\xe9?'
p969
tp970
Rp971
tp972
a(VCAAACAGAAGATCTCGCCCT
p973
g2
(g6
S'\xf7\x83\xa5\xadV\x15\xb4?'
p974
tp975
Rp976
tp977
a(VACCTAGCAAGGATGGGCATG
p978
g2
(g6
S'rm\\\x8a\xa1X\x97?'
p979
tp980
Rp981
tp982
a(VATCCCTTCACTCCTTAATGC
p983
g2
(g6
S'i\xd6\xd0\x08a\xae\xb7?'
p984
tp985
Rp986
tp987
a(VATCCACGATGCGGTTCTGGG
p988
g2
(g6
S';\xb9-1\x99\x81\xd3?'
p989
tp990
Rp991
tp992
a(VGGCAGGATCATCAAAGGGAG
p993
g2
(g6
S'\x04\xef\xb6\x9bx\xb8\xd8?'
p994
tp995
Rp996
tp997
a(VGATTGCTGCATAGTAGGCAC
p998
g2
(g6
S'=z\xd5`\xa0\x1f\xe2?'
p999
tp1000
Rp1001
tp1002
a(VGCCAGGGCCTGCAGGAAGTG
p1003
g2
(g6
S'\xa1\x85\x04\x8c.\xef\xba?'
p1004
tp1005
Rp1006
tp1007
a(VCATGTCCTCAAAGAGAACAC
p1008
g2
(g6
S'\x82\xbc\xf6\x83\xbc\xe9\xe0?'
p1009
tp1010
Rp1011
tp1012
a(VGTCCTGGTTGAGGATGAGGC
p1013
g2
(g6
S'\x80^g,b\xa4\xc5?'
p1014
tp1015
Rp1016
tp1017
a(VGCGCAGCACCCAGCAGACCA
p1018
g2
(g6
S'\xb2\x07\xae\x80\xaf\xd9\xe2?'
p1019
tp1020
Rp1021
tp1022
a(VTGAGCTGCGGTGTCTTGAAA
p1023
g2
(g6
S'a,\xb5\xd9\xb6\xfa\xbc?'
p1024
tp1025
Rp1026
tp1027
a(VCCTTTGGAGCCCCTGGTCCC
p1028
g2
(g6
S'\xd5\x1e\x7f4_O\xb6?'
p1029
tp1030
Rp1031
tp1032
a(VCCATTTAAAGAACAAATTTG
p1033
g2
(g6
S'\x9e\x01jtK\x0e\xce?'
p1034
tp1035
Rp1036
tp1037
a(VCTCCAAAGGCAAGGTCCCCT
p1038
g2
(g6
S'\xd5\xec#\xe5^H\xb5?'
p1039
tp1040
Rp1041
tp1042
a(VACTCAGTGACTTGCAATAGC
p1043
g2
(g6
S'\x0cr8os\x15\xd8?'
p1044
tp1045
Rp1046
tp1047
a(VGGATCTTGAGCTACGAACAC
p1048
g2
(g6
S'\xad;\xc2\xdb\x16\xc4\xe0?'
p1049
tp1050
Rp1051
tp1052
a(VGCTTTATGCGCTGCCGCTGG
p1053
g2
(g6
S'1\x84\x06\xdc\x9f}\xc4?'
p1054
tp1055
Rp1056
tp1057
a(VACGCAAGAAGAAGTCCACCA
p1058
g2
(g6
S'\x94Dp\x08\xc7\xbf\xd1?'
p1059
tp1060
Rp1061
tp1062
a(VGGAGGCGCTCACCTCTGTCT
p1063
g2
(g6
S'\xdc\xac\xb0\xcfRh\xae?'
p1064
tp1065
Rp1066
tp1067
a(VGGGTGGCCGCAACATCTCTG
p1068
g2
(g6
S'\xf6\xa5\x9d\xeb\x12\xed\xd7?'
p1069
tp1070
Rp1071
tp1072
a(VAACCCCTCAAAAAGATCCCA
p1073
g2
(g6
S'\xe3FM\x98\x89\xf2\xe1?'
p1074
tp1075
Rp1076
tp1077
a(VGAGAAGGGTTCCATCGCCTC
p1078
g2
(g6
S'q\xcf\x9f\xa8\xff\xbb\x9c?'
p1079
tp1080
Rp1081
tp1082
a(VAGTGCAAGTATACATGTTGT
p1083
g2
(g6
S'\xd3\x18)k\x06~\xc2?'
p1084
tp1085
Rp1086
tp1087
a(VTGCTCTACCACACACACCTG
p1088
g2
(g6
S'\x12E\x0e2E\x10\xc7?'
p1089
tp1090
Rp1091
tp1092
a(VGCTCACACCATCCAGCTGCA
p1093
g2
(g6
S'<\tI\xbf\xadv\xe9?'
p1094
tp1095
Rp1096
tp1097
a(VAAAGGCTGCTGGGGAAGAAT
p1098
g2
(g6
S'\xdb\xaf\xf1O_\x85\xa7?'
p1099
tp1100
Rp1101
tp1102
a(VGCGGTTGGTCGTACTGTTTG
p1103
g2
(g6
S'qu\x05}\x17\xe6\xc0?'
p1104
tp1105
Rp1106
tp1107
a(VGTCTCACATCAACATTGCAG
p1108
g2
(g6
S'\x11\xef\x15\xea\xa4\xcf\xd9?'
p1109
tp1110
Rp1111
tp1112
a(VGAAGCCCCAAGTGAACCAGA
p1113
g2
(g6
S'\xf4I=\xf7]\xb2\xd5?'
p1114
tp1115
Rp1116
tp1117
a(VCACCACAGCATCATCATCTG
p1118
g2
(g6
S')@\x1e>\x0c\x14\xc5?'
p1119
tp1120
Rp1121
tp1122
a(VAGGTGAAGGTGTGAGCTGCA
p1123
g2
(g6
S'\xf1\xf6{\xbdV\xdd\xce?'
p1124
tp1125
Rp1126
tp1127
a(VTGGACGGGTACTTCATACTT
p1128
g2
(g6
S'\xff\xd3\xd5i\x193\xc7?'
p1129
tp1130
Rp1131
tp1132
a(VGGTGGCGGTCGCAGGAGGAG
p1133
g2
(g6
S'\xd0\xbc5\x13\x80\x9d\xda?'
p1134
tp1135
Rp1136
tp1137
a(VAGCCTTACTCGGAGAAGCAG
p1138
g2
(g6
S'\t\xc4A\xfb\xbe\x93\xe3?'
p1139
tp1140
Rp1141
tp1142
a(VGCTCACACGTGATGACATCT
p1143
g2
(g6
S'y\xb94\xf06~\xa4?'
p1144
tp1145
Rp1146
tp1147
a(VGGCTAGTTGCGTGAGTGGCT
p1148
g2
(g6
S'\x10Y\xe1\xec\x8f\xdd\xb1?'
p1149
tp1150
Rp1151
tp1152
a(VGGGGCCTCTATCACAGAACT
p1153
g2
(g6
S']bZ\x0b\x1b\xb4\xb8?'
p1154
tp1155
Rp1156
tp1157
a(VGTAGCTGCCCACCAGATCCG
p1158
g2
(g6
S'\x94H!\x17<?\xec?'
p1159
tp1160
Rp1161
tp1162
a(VTACAGCTGAGGCCAAAAACC
p1163
g2
(g6
S'\xec[\x85K\xc9\x9d\xbe?'
p1164
tp1165
Rp1166
tp1167
a(VCGGCAGGTAAGCCGGGCCCC
p1168
g2
(g6
S'+\x88\xf8\xbc\x1f\r\xa0?'
p1169
tp1170
Rp1171
tp1172
a(VGGTCATAATGTGAAAGGTGC
p1173
g2
(g6
S'\x04(\xf2\x96>\x83\xb7?'
p1174
tp1175
Rp1176
tp1177
a(VCTGCAGAGGAGCCATCGGAC
p1178
g2
(g6
S'\xbc\xb6\xecMbI\xb6?'
p1179
tp1180
Rp1181
tp1182
a(VGATGACATCTCGGGTCTGCT
p1183
g2
(g6
S'\x11\x90\x8aZ\xf5T\xc6?'
p1184
tp1185
Rp1186
tp1187
a(VGCTAACATGTCTGAAAGGGC
p1188
g2
(g6
S'K\x19@\x11\xee\xc2\xda?'
p1189
tp1190
Rp1191
tp1192
a(VCCTGTGCTGTCCTAGTGCCT
p1193
g2
(g6
S'\x84\xb1\xb8\x11\xac\x10\xd3?'
p1194
tp1195
Rp1196
tp1197
a(VGACATGTCTAGCATCTCGCA
p1198
g2
(g6
S'\xa0\x0e\xddL\x82\xc0\xda?'
p1199
tp1200
Rp1201
tp1202
a(VGGATTGGGACCTAGCAAGGA
p1203
g2
(g6
S'z)\xcd\xca\x1ci\xbe?'
p1204
tp1205
Rp1206
tp1207
a(VACATCGACTGCTGGACAATG
p1208
g2
(g6
S'N\xdeI\t\x96j\xd0?'
p1209
tp1210
Rp1211
tp1212
a(VCCAAACAGAAGATCTCGCCC
p1213
g2
(g6
S'I\xf42\x8a\xe5\xf6\xd3?'
p1214
tp1215
Rp1216
tp1217
a(VTGAACCAGAAGGATAACTTC
p1218
g2
(g6
S'e\r\xd2\xe4F\xb7\xba?'
p1219
tp1220
Rp1221
tp1222
a(VGGCAGCACTCCAGGGTAAGT
p1223
g2
(g6
S"\xac'\x0c-_U\xba?"
p1224
tp1225
Rp1226
tp1227
a(VCTCGACATCTGGCTTCTCAG
p1228
g2
(g6
S'\xb3[\r\x81\n4\xe7?'
p1229
tp1230
Rp1231
tp1232
a(VCGCTGATGATGATCTCCAGG
p1233
g2
(g6
S'\xb2\x1dm\xcbi7\xe4?'
p1234
tp1235
Rp1236
tp1237
a(VGCCGGGGCCTCAGGTGTGTG
p1238
g2
(g6
S'\x8c\x98\x9a\x83\xee2\xbb?'
p1239
tp1240
Rp1241
tp1242
a(VCATTGCAGACAAAGCTGTAG
p1243
g2
(g6
S'6\xb41\x11\x97\xe5\xdb?'
p1244
tp1245
Rp1246
tp1247
a(VACACGGCTCCATCCACGATG
p1248
g2
(g6
S'\xf6\xf0\xb6\xe9\x07\x89\xdf?'
p1249
tp1250
Rp1251
tp1252
a(VGACCAAGCCTGTGCTCAGGT
p1253
g2
(g6
S'F\xa7#\x8a\r\xd9\xd3?'
p1254
tp1255
Rp1256
tp1257
a(VCAACCCCTCAAAAAGATCCC
p1258
g2
(g6
S'Zj\xab\xfc\xac~\xd1?'
p1259
tp1260
Rp1261
tp1262
a(VGAATGAACTGAGTGTAGTTG
p1263
g2
(g6
S'\xba+\x81\xb5\xe6^\xc5?'
p1264
tp1265
Rp1266
tp1267
a(VCCCCACACAGACGTGCATAA
p1268
g2
(g6
S'\xbd\xc9\xc0\x18\xc9\x12\xd6?'
p1269
tp1270
Rp1271
tp1272
a(VCTCCCCTACTATGCCCTGTG
p1273
g2
(g6
S'\x91\x83\xaf;\x1f\x96\x80?'
p1274
tp1275
Rp1276
tp1277
a(VTGGGCAGTTTAGCAATGAGG
p1278
g2
(g6
S'\x88\x8bl\x7f\x185\xbe?'
p1279
tp1280
Rp1281
tp1282
a(VAGGTGGGCAGTTTAGCAATG
p1283
g2
(g6
S'(\xc9c\x9b\x8e\x9f\xc1?'
p1284
tp1285
Rp1286
tp1287
a(VAACTGCACATGCTGCACCAG
p1288
g2
(g6
S'\xe0\xfc\xca\xa6\x03\xa9\xb9?'
p1289
tp1290
Rp1291
tp1292
a(VCAGATCACGAGCTTTGCCCT
p1293
g2
(g6
S'\xb2\x1bg\xe7\xf5&\xb3?'
p1294
tp1295
Rp1296
tp1297
a(VTCCCCTACTATGCCCTGTGA
p1298
g2
(g6
S'-t\xd4\xba\xd5\x7f\xc2?'
p1299
tp1300
Rp1301
tp1302
a(VTACTATGCCCTGTGAGGGGA
p1303
g2
(g6
S'\x88!\xd4m\xd22\x95?'
p1304
tp1305
Rp1306
tp1307
a(VCAGTACACCCCATACCTATC
p1308
g2
(g6
S'\x11\xccM\xabS\xeb\xc0?'
p1309
tp1310
Rp1311
tp1312
a(VTGAGAAGATCCGCCCTGGAG
p1313
g2
(g6
S'\xc2\x11\xe6n\xbe\xae\xc9?'
p1314
tp1315
Rp1316
tp1317
a(VGAAGATTGAAGGGACCCTTG
p1318
g2
(g6
S'\xffK\xdd\x8b\xeb|\xd0?'
p1319
tp1320
Rp1321
tp1322
a(VGCCTCCCGATGTTTACCCTC
p1323
g2
(g6
S'qB|\xbb\x80\xb2\xc8?'
p1324
tp1325
Rp1326
tp1327
a(VTGCCTGCCTCATCCTCAACC
p1328
g2
(g6
S'x8.\xa1\x8a\xf4\xc3?'
p1329
tp1330
Rp1331
tp1332
a(VTGCTGGGGAAGAATTGGAGA
p1333
g2
(g6
S'P\xe3l\xa7\x9ef\xb4?'
p1334
tp1335
Rp1336
tp1337
a(VGAGCAGCAGATCAAGGAGCG
p1338
g2
(g6
S'\x89/xp.\x80\xd7?'
p1339
tp1340
Rp1341
tp1342
a(VTAACTGCTCCCATAAGTACT
p1343
g2
(g6
S'~\xd9\xce\xdb\xfes\xcd?'
p1344
tp1345
Rp1346
tp1347
a(VTCCTCCTTAGGCTTCACCAT
p1348
g2
(g6
S'\xae\xca\xfa\xd76\xc8\xd7?'
p1349
tp1350
Rp1351
tp1352
a(VCCTTAGGCTTCACCATTGGA
p1353
g2
(g6
S'\x9d\xb9\x1a\xe8\xc0C\xe4?'
p1354
tp1355
Rp1356
tp1357
a(VTGGACGGGGCAATAGGCAAG
p1358
g2
(g6
S'\xee\xd2-\x0b\x8b)\xaf?'
p1359
tp1360
Rp1361
tp1362
a(VAGCTCACACCTTCACCTACA
p1363
g2
(g6
S'\xdcXy\x97\xc5\xa3\xc3?'
p1364
tp1365
Rp1366
tp1367
a(VCTCAAATCCTCGGATCTGGT
p1368
g2
(g6
S'>\xf4\x1c\x12ph\xdb?'
p1369
tp1370
Rp1371
tp1372
a(VCTTCGATTCCATCTTCAAGA
p1373
g2
(g6
S'\xd4\x85\x04\xfe\x83\x97\xd9?'
p1374
tp1375
Rp1376
tp1377
a(VTTGCCTTAAGTCTCTGTGTG
p1378
g2
(g6
S'H6\xea0E\n\xba?'
p1379
tp1380
Rp1381
tp1382
a(VGAATATTCACTCAGCATCAG
p1383
g2
(g6
S'G\x95f\x95\xc7J\xc0?'
p1384
tp1385
Rp1386
tp1387
a(VAGAGCGCTCTGGTGTATGGC
p1388
g2
(g6
S'\xb5\xda\x00\xc2@\xbd\xbd?'
p1389
tp1390
Rp1391
tp1392
a(VTGTGTTATAGAACCAGGGTT
p1393
g2
(g6
S'\x17s\xda\xca\x80\xf0\xd1?'
p1394
tp1395
Rp1396
tp1397
a(VAACATGTCTCTTCTTAACCT
p1398
g2
(g6
S'\xd5Pr\xa0\xea\x84\xb1?'
p1399
tp1400
Rp1401
tp1402
a(VCAGCAACCTGCGGTGCCCCA
p1403
g2
(g6
S'\x9c7\xa9\xc3e\xb0\xc2?'
p1404
tp1405
Rp1406
tp1407
a(VGGGCAGTTTAGCAATGAGGG
p1408
g2
(g6
S'\xff*\xd9\x14<\x83\xd2?'
p1409
tp1410
Rp1411
tp1412
a(VGGGCAGGATGAACAACGCGA
p1413
g2
(g6
S'\xac\xeec\x95j\xa0\xea?'
p1414
tp1415
Rp1416
tp1417
a(VTGCTTATGTGCCCTCAGCAC
p1418
g2
(g6
S'\x96\xc3\xaa\x1e\x89\x87\xc8?'
p1419
tp1420
Rp1421
tp1422
a(VACCCTCGAAGTGAGAGTGAG
p1423
g2
(g6
S'\xd1\xfd \xbb\xa0X\xd1?'
p1424
tp1425
Rp1426
tp1427
a(VCTTAGGCTTCACCATTGGAC
p1428
g2
(g6
S'y\xca\xcd\xe4YQ\xc2?'
p1429
tp1430
Rp1431
tp1432
a(VCACCCAGCAGACCACGGAGT
p1433
g2
(g6
S'N\x98\x93\xc4PV\xb6?'
p1434
tp1435
Rp1436
tp1437
a(VGTATCGATAAGGGAGCCCTG
p1438
g2
(g6
S'\x14k\xcdc\x884\xeb?'
p1439
tp1440
Rp1441
tp1442
a(VCTTTGGGTACCTTTGAGTGG
p1443
g2
(g6
S'\x94\x96\x8a\xc0jr\xe6?'
p1444
tp1445
Rp1446
tp1447
a(VTGCTCATCCCCAGAGACAGC
p1448
g2
(g6
S'/\x95\xda2\xb0\xf3\xd2?'
p1449
tp1450
Rp1451
tp1452
a(VATCGACTTTGCCATTCAGGT
p1453
g2
(g6
S'\xae\xf0\xc1z\xc2c\xb6?'
p1454
tp1455
Rp1456
tp1457
a(VCAAAGCTGTAGCGGTTAGCA
p1458
g2
(g6
S'^\xf6\xebNw~\xd7?'
p1459
tp1460
Rp1461
tp1462
a(VGGGTCCTGAGGGTAAACATC
p1463
g2
(g6
S'5X\xd8\xd6\xc6M\xc6?'
p1464
tp1465
Rp1466
tp1467
a(VAAAGGGACAGCAGAAACTGG
p1468
g2
(g6
S'\x85\xf1\xfe8\x94s\xc0?'
p1469
tp1470
Rp1471
tp1472
a(VCCGGCGAGTGGCTCGAGGAG
p1473
g2
(g6
S'g\x1bW\xda\xe4\x9b\xb8?'
p1474
tp1475
Rp1476
tp1477
a(VGGCCAGGGCCTGCAGGAAGT
p1478
g2
(g6
S'\x1cd9\xd9k\x99\xb0?'
p1479
tp1480
Rp1481
tp1482
a(VCTGGTTTGGAACAGTCCGAG
p1483
g2
(g6
S'\xdc\xee\x8a\x85\xc6\xb8\xbf?'
p1484
tp1485
Rp1486
tp1487
a(VGACCTTGCCTTTGGAGCCCC
p1488
g2
(g6
S'aH\xe9\xfa\x87\xf2\xa4?'
p1489
tp1490
Rp1491
tp1492
a(VGAGAGGGAGGCCGGGGACCA
p1493
g2
(g6
S'\x1ds\xdb\x14H\xb6\xa1?'
p1494
tp1495
Rp1496
tp1497
a(VACTGATAGCAGAATTAAGAC
p1498
g2
(g6
S'dB\xbaB\x99B\xe1?'
p1499
tp1500
Rp1501
tp1502
a(VTCCATCCACGATGCGGTTCT
p1503
g2
(g6
S'\xcf\x06\xafI\xf6\x89}?'
p1504
tp1505
Rp1506
tp1507
a(VTCCAGCTCTCTAGAGCGCTC
p1508
g2
(g6
S'n\xe0C\xc6\xf9\x94\xc0?'
p1509
tp1510
Rp1511
tp1512
a(VAGTAGGCAAGCCGGCGGGAC
p1513
g2
(g6
S'\x16\x81\xe4\xaf&\xd5\x8e?'
p1514
tp1515
Rp1516
tp1517
a(VACATGTCCCTGGACTGAGGT
p1518
g2
(g6
S'\x8c\x03a\x07\xcb\x01\xd7?'
p1519
tp1520
Rp1521
tp1522
a(VACTCAAACTGCGGCTCAACC
p1523
g2
(g6
S'\x94q8e\x01\xa2\xc4?'
p1524
tp1525
Rp1526
tp1527
a(VGGGGTCCTGAGGGTAAACAT
p1528
g2
(g6
S'\xeb\x93\xc0\x0c\xe4\xae\xe2?'
p1529
tp1530
Rp1531
tp1532
a(VATGGCTGAATACTACCGGCC
p1533
g2
(g6
S'XEs\xf5G>\x91?'
p1534
tp1535
Rp1536
tp1537
a(VACAGGACTATGGAATGGGCC
p1538
g2
(g6
S'\xc6\xb8\xc4\x8cN\x88\xd2?'
p1539
tp1540
Rp1541
tp1542
a(VGAGGTGGCAGTGGTGGTCGG
p1543
g2
(g6
S"\xdaP\x01\x95\xc9'\xbd?"
p1544
tp1545
Rp1546
tp1547
a(VGTCACTTACTTCCATCAGAC
p1548
g2
(g6
S'\x8a\x145^\xdb\x97\xc4?'
p1549
tp1550
Rp1551
tp1552
a(VAGAGGTGGCAATCCGGCAGT
p1553
g2
(g6
S'\x9c\xcc\x03Nr\xa4\xc2?'
p1554
tp1555
Rp1556
tp1557
a(VGTGATCGACAAAAGCAGAAG
p1558
g2
(g6
S'\x96A\x99lZ\xee\xc7?'
p1559
tp1560
Rp1561
tp1562
a(VCATCGACTTTGCCATTCAGG
p1563
g2
(g6
S'Ks\x89\xf5\xd6\x18\xd1?'
p1564
tp1565
Rp1566
tp1567
a(VTTCTGCATTGGTAAGCGCAC
p1568
g2
(g6
S'\xef\x9a\x97\x90\xfd\x96\xc9?'
p1569
tp1570
Rp1571
tp1572
a(VAGGTCACTAAAGGGAGTCGA
p1573
g2
(g6
S'\xce\xf8\xa5\x1b\xb4i\xe5?'
p1574
tp1575
Rp1576
tp1577
a(VTCGTGAAGCATGGGATGAAC
p1578
g2
(g6
S'\x8f\xcb\xf7\r\xc5\xbd\xc6?'
p1579
tp1580
Rp1581
tp1582
a(VTTGGAGAAGGGTCAGCACCT
p1583
g2
(g6
S'H\xacK\xe1\xcf\xdd\xba?'
p1584
tp1585
Rp1586
tp1587
a(VTGCCGATGACCCAGAGCACA
p1588
g2
(g6
S'\x1b\x1bO>\x1c(\xb6?'
p1589
tp1590
Rp1591
tp1592
a(VCTCACACAGGACTATGGAAT
p1593
g2
(g6
S'\xadg\xbc8\xe7\xe3\xc0?'
p1594
tp1595
Rp1596
tp1597
a(VGGTGTCATTGCTATGTGAAT
p1598
g2
(g6
S'\x9c}\xc22fm\xc2?'
p1599
tp1600
Rp1601
tp1602
a(VCAACCAGGACCAGATGGCAC
p1603
g2
(g6
S'\x90I\xc5M\xad\x01\xc9?'
p1604
tp1605
Rp1606
tp1607
a(VTTGGTCGTACTGTTTGGGGT
p1608
g2
(g6
S'\xf1\xb3\xbf#\x92\xd7\xd3?'
p1609
tp1610
Rp1611
tp1612
a(VACCTTCACCTACACGGGGCT
p1613
g2
(g6
S'\xce\x84\xaa\xc1\xc9p\x9b?'
p1614
tp1615
Rp1616
tp1617
a(VCCCTTCCTGACACTGGTCGC
p1618
g2
(g6
S'_\x8d\x95\x93\xaek\xb8?'
p1619
tp1620
Rp1621
tp1622
a(VTTATCCTTCTGGTTCACTTG
p1623
g2
(g6
S'U\t0\xdb7\xff\xd7?'
p1624
tp1625
Rp1626
tp1627
a(VTTGTCAGCTTCCTCAGGAAT
p1628
g2
(g6
S'\xbaE\xc3\xd6*i\xd2?'
p1629
tp1630
Rp1631
tp1632
a(VCGATTCCATCTTCAAGAAGG
p1633
g2
(g6
S'\xe4\xdb\x0cN|I\xd6?'
p1634
tp1635
Rp1636
tp1637
a(VGACTGGCAAGGATTGAGCTG
p1638
g2
(g6
S'4Y\xe39I\xad\xe4?'
p1639
tp1640
Rp1641
tp1642
a(VACCAAAGCAGCTTATGCATG
p1643
g2
(g6
S'\x90\xfe_\xc1r\x0e\xb2?'
p1644
tp1645
Rp1646
tp1647
a(VAGAGTGTCGATCATGAACTC
p1648
g2
(g6
S"\x91\xb7\xceR\xc1'\xd8?"
p1649
tp1650
Rp1651
tp1652
a(VCCCAGCCGCGGCCGCTTCAG
p1653
g2
(g6
S'h3G\x89o>\xb3?'
p1654
tp1655
Rp1656
tp1657
a(VTCGAAGTGAGAGTGAGCGGG
p1658
g2
(g6
S'R\xa9`\xf4\xdfz\xd6?'
p1659
tp1660
Rp1661
tp1662
a(VTTAAGCAATTCATCCTCTCC
p1663
g2
(g6
S'q{\xb7\xb6F\xbd\xa3?'
p1664
tp1665
Rp1666
tp1667
a(VATTGCCACCTCTACATCATG
p1668
g2
(g6
S'\xdfQ\x1cm@\xf7\xd6?'
p1669
tp1670
Rp1671
tp1672
a(VCGTACTGCACGTGTCGTGGC
p1673
g2
(g6
S'\xd5\xee\x91\xacG\x8a\xb4?'
p1674
tp1675
Rp1676
tp1677
a(VGGTGGGGGGCATGTTTGACA
p1678
g2
(g6
S'=\xa0\xbd\x11\x15^\xc6?'
p1679
tp1680
Rp1681
tp1682
a(VTTGTGCTGCTCCTCTAACAA
p1683
g2
(g6
S'\x0e\xcc\xa9\x1b*1\xd8?'
p1684
tp1685
Rp1686
tp1687
a(VCTACTTTGGGTACCTTTGAG
p1688
g2
(g6
S'w\x0c\x97nu\xed\xc8?'
p1689
tp1690
Rp1691
tp1692
a(VATTCCTACTGTAGGCTTGTC
p1693
g2
(g6
S'\x9b\xe9\xbe\x99! \x98?'
p1694
tp1695
Rp1696
tp1697
a(VGCCTGGGCACTACTCAACAC
p1698
g2
(g6
S'\x92i\x11\xaa\x04f\xc6?'
p1699
tp1700
Rp1701
tp1702
a(VCCAGGGCCTGCAGGAAGTGG
p1703
g2
(g6
S'\xea\xa3rd\xfc3\xd7?'
p1704
tp1705
Rp1706
tp1707
a(VTCAGGCTTCACTGTGACAGG
p1708
g2
(g6
S"\xc4\x83c\x1f/'\xe3?"
p1709
tp1710
Rp1711
tp1712
a(VAGGGCAGGATGAACAACGCG
p1713
g2
(g6
S'\xe9\x16\x96L\ty\xda?'
p1714
tp1715
Rp1716
tp1717
a(VGACATGTGTTAAAGGCTGCT
p1718
g2
(g6
S'\xb2\xa8\x8a\xd4t0\xc0?'
p1719
tp1720
Rp1721
tp1722
a(VGCTGCATGAGGCGCTGCGCC
p1723
g2
(g6
S'\x8d\xe9\xb8\x03=\xa0\xb3?'
p1724
tp1725
Rp1726
tp1727
a(VAGTCAGAGCGTTCAAAACTA
p1728
g2
(g6
S'\xfeF\xf4\x98l/\xdd?'
p1729
tp1730
Rp1731
tp1732
a(VAGGAACAGAAGAACTTCCAG
p1733
g2
(g6
S'\xe2\xd3,h\x0b|\xdd?'
p1734
tp1735
Rp1736
tp1737
a(VACCACAAGTGCCATTGTTAG
p1738
g2
(g6
S'\xed\x13O\\\xdf\x9e\xb6?'
p1739
tp1740
Rp1741
tp1742
a(VCAGATGGCACAGGTCTTTGA
p1743
g2
(g6
S'\x83[S-\xdd5\xbf?'
p1744
tp1745
Rp1746
tp1747
a(VTCCAACAGTCAGCAGAGACA
p1748
g2
(g6
S'\x8e:\xbe\xe6\xeaq\xe2?'
p1749
tp1750
Rp1751
tp1752
a(VACAGGGGATGCGGAACTGAA
p1753
g2
(g6
S'_E*\xb2\xf4\xc6\xd1?'
p1754
tp1755
Rp1756
tp1757
a(VTAGAGGTGGCAATCCGGCAG
p1758
g2
(g6
S'\xf4`\xbd\x17\x80\xc2\xa9?'
p1759
tp1760
Rp1761
tp1762
a(VCTCCTGCACCACCCAAACCC
p1763
g2
(g6
S'\xe6\xe1\x0c\x17\x1cR\xb1?'
p1764
tp1765
Rp1766
tp1767
a(VGCACCCAGCAGACCACGGAG
p1768
g2
(g6
S'.\xb1 7=\xf4\xd3?'
p1769
tp1770
Rp1771
tp1772
a(VCTTGGCGATGTTCTCCAAGA
p1773
g2
(g6
S'6\xe9\x02\xd3s\xcf\xd6?'
p1774
tp1775
Rp1776
tp1777
a(VCCTTGGCGATGTTCTCCAAG
p1778
g2
(g6
S'\xb3\x198\x84P\xcc\xe4?'
p1779
tp1780
Rp1781
tp1782
a(VGTGCCATCTGGTCCTGGTTG
p1783
g2
(g6
S'\xf4\x1f\xe6SF\xea\xcb?'
p1784
tp1785
Rp1786
tp1787
a(VACATCTGGCTTCTCAGGGGA
p1788
g2
(g6
S'\xc2k%\xe13\xb3\xd1?'
p1789
tp1790
Rp1791
tp1792
a(VAAAACCAGGGGCCGGTGCTG
p1793
g2
(g6
S'\t\xebi\x01\x86W\x81?'
p1794
tp1795
Rp1796
tp1797
a(VAGTAAGAAGGAAGAGGTGTT
p1798
g2
(g6
S'\xda\x1e\x13\xe2\xf7Z\xa1?'
p1799
tp1800
Rp1801
tp1802
a(VGAGACATGTTGACCCTTTCA
p1803
g2
(g6
S'\xfa\xa7\x81\n:f\xa1?'
p1804
tp1805
Rp1806
tp1807
a(VATCCAAAGATTCGGTTACAA
p1808
g2
(g6
S'\x90!X9\xda\x0f\xbe?'
p1809
tp1810
Rp1811
tp1812
a(VTGAAGGTTCTGAACCGCAAA
p1813
g2
(g6
S'\xd7I\xd1Xh\x08\xe5?'
p1814
tp1815
Rp1816
tp1817
a(VACTTCATACTTTGGAAGTGC
p1818
g2
(g6
S'\xd7\x98\x1c\xe6\xe7`\xa8?'
p1819
tp1820
Rp1821
tp1822
a(VTTATAGAACCAGGGTTTGGG
p1823
g2
(g6
S'\xa8K\x1a1 \x8c\xd0?'
p1824
tp1825
Rp1826
tp1827
a(VTGTCCTCACACAGAGACTTA
p1828
g2
(g6
S';7w8\xdd\xd9\xb8?'
p1829
tp1830
Rp1831
tp1832
a(VTTTCTATCCGACCTGAGCAC
p1833
g2
(g6
S'6D\x12F~\xa0\xe5?'
p1834
tp1835
Rp1836
tp1837
a(VGGGAATAGTACCTGGGGGAT
p1838
g2
(g6
S'\xd3\xf4 \xd7b\xc4\xa3?'
p1839
tp1840
Rp1841
tp1842
a(VTCATTGTCCAGCAGTCGATG
p1843
g2
(g6
S'\x0f\xb4(\n\xf9B\xd0?'
p1844
tp1845
Rp1846
tp1847
a(VGAAGGGCTGCTGGCTCAATA
p1848
g2
(g6
S'\x964\xf3\xa2~0\xd1?'
p1849
tp1850
Rp1851
tp1852
a(VCATGACGCCAGTCATGGTTG
p1853
g2
(g6
S'\xd8"\x9c(\x9f$\xb5?'
p1854
tp1855
Rp1856
tp1857
a(VCTACTGCAACGTGGAGCCAT
p1858
g2
(g6
S'\xc1\xe1m\xf4\x1d{\xd2?'
p1859
tp1860
Rp1861
tp1862
a(VGGCACTGTTACCCTCTGGCA
p1863
g2
(g6
S'\xc9\xa1\xd6\x18\x9a\t\x8f?'
p1864
tp1865
Rp1866
tp1867
a(VTCCAGGGTAAGTTGGTCGGG
p1868
g2
(g6
S'\x8c{\xf6\xd3\xb4\xc8\xb1?'
p1869
tp1870
Rp1871
tp1872
a(VAGAAGATGGCTGAATACTAC
p1873
g2
(g6
S'\xc8X\xa0\xef\x04\x01\xb1?'
p1874
tp1875
Rp1876
tp1877
a(VCCTGCGACCAGTGTCAGGAA
p1878
g2
(g6
S'\xa8!\xda)~\xd5\xda?'
p1879
tp1880
Rp1881
tp1882
a(VCCCGCTCACTCTCACTTCGA
p1883
g2
(g6
S'\x13\x83\xd4\xae\x88\xa8\xd0?'
p1884
tp1885
Rp1886
tp1887
a(VGACGGTATGGGTCCACACGA
p1888
g2
(g6
S'\xe9e\xd7g\x15\xb0\xdd?'
p1889
tp1890
Rp1891
tp1892
a(VCAGCCACGATGCACAGGCAC
p1893
g2
(g6
S'\xdf>\\\x86\xc0\xd0\xc0?'
p1894
tp1895
Rp1896
tp1897
a(VGGCTCCCTTATCGATACCAA
p1898
g2
(g6
S'\xbe\xf1\x80u\xc6\xbe\xd9?'
p1899
tp1900
Rp1901
tp1902
a(VGGAGTGGGCCATGCTCCTCC
p1903
g2
(g6
S'\x06\xb7\xab\x13t\xd4\xae?'
p1904
tp1905
Rp1906
tp1907
a(VACTCACACAGGACTATGGAA
p1908
g2
(g6
S'\xa4i\xb3^\xca\xc8\xca?'
p1909
tp1910
Rp1911
tp1912
a(VCATCCCCAGAGACAGCAGGC
p1913
g2
(g6
S'\xaa\xe5\xe8\xa04\\\xc8?'
p1914
tp1915
Rp1916
tp1917
a(VTCCTGCGACCAGTGTCAGGA
p1918
g2
(g6
S'\xc46\xc8ujf\xa0?'
p1919
tp1920
Rp1921
tp1922
a(VACCAGAGCGCTCTAGAGAGC
p1923
g2
(g6
S'\x1fo\xbfj\xcf&\xb0?'
p1924
tp1925
Rp1926
tp1927
a(VTCAGGACCCCAAACAGAAGG
p1928
g2
(g6
S'<.\xc6\x9as\x9b\xe6?'
p1929
tp1930
Rp1931
tp1932
a(VTGCCGCTGATGATGATCTCC
p1933
g2
(g6
S'f4\xdb\xddO\x02\x85?'
p1934
tp1935
Rp1936
tp1937
a(VACAGAGGTCTTATAAGAGGA
p1938
g2
(g6
S'\xd6C\xea,iK\xe9?'
p1939
tp1940
Rp1941
tp1942
a(VTAACCAGCCTGCTGTCTCTG
p1943
g2
(g6
S'\x8f\x17\x81\x9a"\x0c\xba?'
p1944
tp1945
Rp1946
tp1947
a(VGAGAAGATTGAAGGGACCCT
p1948
g2
(g6
S'\x90E\xcdi\xac\x03\xbc?'
p1949
tp1950
Rp1951
tp1952
a(VTGCAGCAATCTCTGAGACCA
p1953
g2
(g6
S'6\x91\xd6nt\xfb\xb7?'
p1954
tp1955
Rp1956
tp1957
a(VACACACCTTAACTACAGGCA
p1958
g2
(g6
S'Z-\xba9\xb8\x9b\xc2?'
p1959
tp1960
Rp1961
tp1962
a(VAGAAGATTGAAGGGACCCTT
p1963
g2
(g6
S'\x80"\xe1>\x1c+\xcb?'
p1964
tp1965
Rp1966
tp1967
a(VTGAGCTCTTCACTACTGTGT
p1968
g2
(g6
S'v\xebS\x93\x82\x1c\xb1?'
p1969
tp1970
Rp1971
tp1972
a(VTTGGTAGTTCACCAGCATTA
p1973
g2
(g6
S'\x05\xd3\x96^\x8ec\x9f?'
p1974
tp1975
Rp1976
tp1977
a(VGTTGGTCGTACTGTTTGGGG
p1978
g2
(g6
S'\x18\xa4\x97S-\xe2\xc5?'
p1979
tp1980
Rp1981
tp1982
a(VACTATGCCCTGTGAGGGGAA
p1983
g2
(g6
S'\x96\xf5\xdf\xa6\xe6\xa2\xdc?'
p1984
tp1985
Rp1986
tp1987
a(VCCCTCAGGACCCCAAACAGA
p1988
g2
(g6
S'\xcf\x95\xbf}H\xb8\xc6?'
p1989
tp1990
Rp1991
tp1992
a(VAATCACCAAGGATATCTTGA
p1993
g2
(g6
S'\x12\xf4\x7f]9\xba\xc6?'
p1994
tp1995
Rp1996
tp1997
a(VCAGGACTATGGAATGGGCCC
p1998
g2
(g6
S'\x1eQ\xa6ss\xa1\xc2?'
p1999
tp2000
Rp2001
tp2002
a(VCTCCTCAGATGATGATGCTG
p2003
g2
(g6
S'2\xe8h{\x12\xdd\xaf?'
p2004
tp2005
Rp2006
tp2007
a(VGGCCCACTCCGTGGTCTGCT
p2008
g2
(g6
S'k^\xa0g]\xaa\xc0?'
p2009
tp2010
Rp2011
tp2012
a(VTAGGTCCCAATCCAAAGATT
p2013
g2
(g6
S' qF\xcfX\xf4\xc5?'
p2014
tp2015
Rp2016
tp2017
a(VGGGAGCACTGGGAGCAGAAA
p2018
g2
(g6
S'\xf7\xe8\x84\x054\xe7\xcf?'
p2019
tp2020
Rp2021
tp2022
a(VGTTAGCACCAGCGATAAGAA
p2023
g2
(g6
S'.o%s\xe0\xc0\xe7?'
p2024
tp2025
Rp2026
tp2027
a(VGACCAGGGGCTCCAAAGGCA
p2028
g2
(g6
S'\xacf3\r\xde\xe5\xa5?'
p2029
tp2030
Rp2031
tp2032
a(VTTCTCAGGCTCTAGCAGGGT
p2033
g2
(g6
S'\xc4\xd1\x80:\x18\xc3\xb0?'
p2034
tp2035
Rp2036
tp2037
a(VTAAGGTGTGTTATAGAACCA
p2038
g2
(g6
S'C!\xbb8\x15<\xe7?'
p2039
tp2040
Rp2041
tp2042
a(VCATCATCATCTGAGGAGATC
p2043
g2
(g6
S'a\xdd\xb5\xda|\x89\x96?'
p2044
tp2045
Rp2046
tp2047
a(VCCAGCCAGCTACCAAGACAG
p2048
g2
(g6
S'\xc9\xa6M\xb60\xa4\xe4?'
p2049
tp2050
Rp2051
tp2052
a(VTAACAGTGCCTTCACTCAGC
p2053
g2
(g6
S'\x80Y\x0c\xe4\xfas\xbb?'
p2054
tp2055
Rp2056
tp2057
a(VGCTTCTCAAATCCTCGGATC
p2058
g2
(g6
S'\x91\xdf)\x84\xd8\x10\xa6?'
p2059
tp2060
Rp2061
tp2062
a(VGTGCACCTGGCTGTAGAGGG
p2063
g2
(g6
S'.yU\xca\xdf\xfb\xcc?'
p2064
tp2065
Rp2066
tp2067
a(VCTCCTTGTGCTCTGGGTCAT
p2068
g2
(g6
S'\n\x07\xe2?TO\xae?'
p2069
tp2070
Rp2071
tp2072
a(VATCCGACCTGAGCACAGGCT
p2073
g2
(g6
S'.\x7fN\xd9\x9a\x81\xc5?'
p2074
tp2075
Rp2076
tp2077
a(VTGTGTGGCGTCGTGAAGCAT
p2078
g2
(g6
S'\xb2d\x93\x9e\x17\xfe\xd3?'
p2079
tp2080
Rp2081
tp2082
a(VGCAAGACCAAGCCTGTGCTC
p2083
g2
(g6
S'.\xc0g\xb9\xa6\x9f\xd4?'
p2084
tp2085
Rp2086
tp2087
a(VACCAAGTGTTAATGGCACTC
p2088
g2
(g6
S'8\x03\xd5\x9f\xfa\x90\x9a?'
p2089
tp2090
Rp2091
tp2092
a(VCTTGCCCCATGATGTAGAGG
p2093
g2
(g6
S'n\x1cX^W+\xc2?'
p2094
tp2095
Rp2096
tp2097
a(VGAAGAACTTCCAGAGGAGGA
p2098
g2
(g6
S'\x82\x83S\xa5\x81\xcd\xd0?'
p2099
tp2100
Rp2101
tp2102
a(VTTGTGGCCCTGGCAGGTGGG
p2103
g2
(g6
S"'2\xea\x8fm/\xca?"
p2104
tp2105
Rp2106
tp2107
a(VCCTCTGTCTTGGTAGCTGGC
p2108
g2
(g6
S'k\xc2\xe9i/^\xd5?'
p2109
tp2110
Rp2111
tp2112
a(VCTACGGGCTGGGCAAGATGG
p2113
g2
(g6
S'S\xfd\x01\x11\r\x1b\xe4?'
p2114
tp2115
Rp2116
tp2117
a(VGTGGGGAGGATGGGCAGAAG
p2118
g2
(g6
S'\x85\xfa\n\x90ps\xa1?'
p2119
tp2120
Rp2121
tp2122
a(VGGTAAGCGCACAGGACGGTA
p2123
g2
(g6
S'\xd5\xd0\xbf\x8aw\xf3\xb7?'
p2124
tp2125
Rp2126
tp2127
a(VCAGCTTCCTCAGGAATGGGT
p2128
g2
(g6
S'\x8eF\x1a\xe9\x00\xd9\xc9?'
p2129
tp2130
Rp2131
tp2132
a(VGGGGCACCATGGTACCTGCA
p2133
g2
(g6
S'\xb6\xfa\xceU\x11\xf3\xd5?'
p2134
tp2135
Rp2136
tp2137
a(VTTACTTCCATCAGACTGGCA
p2138
g2
(g6
S'Z\t\\\xa5[y\xcc?'
p2139
tp2140
Rp2141
tp2142
a(VGAACCTGGCGAAGAAGTTGC
p2143
g2
(g6
S' \xae\xf0\xbc\xc1\xc8\xcf?'
p2144
tp2145
Rp2146
tp2147
a(VATGGACTGACCTCCACTCAA
p2148
g2
(g6
S'\x059b\x0c0\x1c\xc0?'
p2149
tp2150
Rp2151
tp2152
a(VACTGCTGGACAATGAGGATG
p2153
g2
(g6
S'%\x0f\x1b\x977h\xc7?'
p2154
tp2155
Rp2156
tp2157
a(VAAACCAGGGGCCGGTGCTGA
p2158
g2
(g6
S'\x85\xd1\xd23\xc2}\x82?'
p2159
tp2160
Rp2161
tp2162
a(VGTTATCCTTCTGGTTCACTT
p2163
g2
(g6
S'\x08\x0c\x01\xdc\x06\x97\xbc?'
p2164
tp2165
Rp2166
tp2167
a(VTGCATGAGGCACTCAAACTG
p2168
g2
(g6
S'\xd6\x0cd\xce\x17a\xcd?'
p2169
tp2170
Rp2171
tp2172
a(VAGAAGAACTTCCAGAGGAGG
p2173
g2
(g6
S'~=C^-\xfc\xc9?'
p2174
tp2175
Rp2176
tp2177
a(VAGAAAGGGAGCCAGAGGCGA
p2178
g2
(g6
S'\xee\xb2\x85>]\xbf\xcb?'
p2179
tp2180
Rp2181
tp2182
a(VGGCAGTGGTGGTCGGAGGCA
p2183
g2
(g6
S'iV(ea\xee\xc4?'
p2184
tp2185
Rp2186
tp2187
a(VTTAAGGTGTGTTATAGAACC
p2188
g2
(g6
S'S\x9dR\x81:5\xc4?'
p2189
tp2190
Rp2191
tp2192
a(VGCAGATCAAGGAGCGGGGAC
p2193
g2
(g6
S'}\xaa\x00\x9bPa\xb9?'
p2194
tp2195
Rp2196
tp2197
a(VCTTCCTTCTTACTGAAAATG
p2198
g2
(g6
S"EaT\xa8'Y\xbc?"
p2199
tp2200
Rp2201
tp2202
a(VTTGCGTTCCTCAGTACTGGG
p2203
g2
(g6
S'\x85\xa16\xf3\xa9\xd8\xdf?'
p2204
tp2205
Rp2206
tp2207
a(VGCGCTCTGCAGAGGAGCCAT
p2208
g2
(g6
S'\x14\xac\xca\xeed\x18\xdd?'
p2209
tp2210
Rp2211
tp2212
a(VCTCAGAGATTGCTGCATAGT
p2213
g2
(g6
S'\xad{\xc6\xe6,\xb1\x91?'
p2214
tp2215
Rp2216
tp2217
a(VTGAGGCCAAAAACCAGGGGC
p2218
g2
(g6
S'\xb9\x89\xc76\x8a\xdb\xd1?'
p2219
tp2220
Rp2221
tp2222
a(VGTTCTGGGTGTACAGGCCTA
p2223
g2
(g6
S'\x1aKtp\x92a\xc9?'
p2224
tp2225
Rp2226
tp2227
a(VACCACACACACCTGAGGCCC
p2228
g2
(g6
S'U5*8\x08\xaf\xb0?'
p2229
tp2230
Rp2231
tp2232
a(VCAGAACCTTCAAGATATCCT
p2233
g2
(g6
S'w\x9b\x95\xbf\x0b\xf3\xad?'
p2234
tp2235
Rp2236
tp2237
a(VCTCACACGTGATGACATCTC
p2238
g2
(g6
S'\xa3\xe2\x9f\x1c|\x16\xba?'
p2239
tp2240
Rp2241
tp2242
a(VTCAGTACACCCCATACCTAT
p2243
g2
(g6
S'\t@v\xf3a\x11\xd8?'
p2244
tp2245
Rp2246
tp2247
a(VCCACAGCCCCCACTTCCTGC
p2248
g2
(g6
S'\xc3\xeb-\xf7_-\xcf?'
p2249
tp2250
Rp2251
tp2252
a(VTCGAGCAGCAGATCAAGGAG
p2253
g2
(g6
S'tQ\xc2\x86\x86i\xe0?'
p2254
tp2255
Rp2256
tp2257
a(VCCCCAAGAGAGTGGTGCTGA
p2258
g2
(g6
S'\xb7\x19\xfai\xd4*\xab?'
p2259
tp2260
Rp2261
tp2262
a(VCCTGGCTGTAGAGGGAGGTA
p2263
g2
(g6
S'$w\x82D\xad\xc5\xb2?'
p2264
tp2265
Rp2266
tp2267
a(VTCAGCAGTGGGGAAGGCTTC
p2268
g2
(g6
S'mf\xcc\xdb\x13O\xa8?'
p2269
tp2270
Rp2271
tp2272
a(VTAAACCCATGACGCCAGTCA
p2273
g2
(g6
S"\xeb\x04'\xe73\xbc\xbc?"
p2274
tp2275
Rp2276
tp2277
a(VCATGTCATACCACTTGCCTC
p2278
g2
(g6
S'\xbb2\x12\x1b\xd8<\xd2?'
p2279
tp2280
Rp2281
tp2282
a(VGTAAGCGCACAGGACGGTAT
p2283
g2
(g6
S'\xb7/r\xdf\x02\x1a\xdf?'
p2284
tp2285
Rp2286
tp2287
a(VCCCCATACCTATCGGGATCA
p2288
g2
(g6
S'I\xf7\x825\x1f\xee\x92?'
p2289
tp2290
Rp2291
tp2292
a(VCAAGAGGGAGTTCATCTCCT
p2293
g2
(g6
S'\xe7\x15\xd8.0\xd5\xc4?'
p2294
tp2295
Rp2296
tp2297
a(VGTGCTGCCCACAACCATGAC
p2298
g2
(g6
S'\\\x0f\xb2n\xb4\xca\xbc?'
p2299
tp2300
Rp2301
tp2302
a(VTGCCATCAAGAAAATCACCA
p2303
g2
(g6
S'\xdd\x82\x05-\xad\xd1\xe4?'
p2304
tp2305
Rp2306
tp2307
a(VTGGTGCTAACATGTCTGAAA
p2308
g2
(g6
S'\xf1\xa8\xe7\x93\xcbu\xc7?'
p2309
tp2310
Rp2311
tp2312
a(VCCCCCCAAAACTGACAAACC
p2313
g2
(g6
S'\x15\x03\x03\x8cW\xee\x91?'
p2314
tp2315
Rp2316
tp2317
a(VGTCATCGGCAGGATCATCAA
p2318
g2
(g6
S'\xb6\xbdzha\xc7\xc9?'
p2319
tp2320
Rp2321
tp2322
a(VCGCAAAGGGACAGCAGAAAC
p2323
g2
(g6
S'\xe9\x10L\xf6NS\x8b?'
p2324
tp2325
Rp2326
tp2327
a(VTTATGGTGTGACAGTGCCTC
p2328
g2
(g6
S'w\xd0\x15:\xe9\x1c\xde?'
p2329
tp2330
Rp2331
tp2332
a(VTCCTGAGGGTAAACATCGGG
p2333
g2
(g6
S'\x01\x92IC\x16\xb4\xc8?'
p2334
tp2335
Rp2336
tp2337
a(VCCTGCCTCAGGATGAACTGA
p2338
g2
(g6
S'\x1cG\x95)2O\xd4?'
p2339
tp2340
Rp2341
tp2342
a(VCAGCAGGTGGCGGTCGCAGG
p2343
g2
(g6
S'\xc5\xd7\xe3-s\x94\xae?'
p2344
tp2345
Rp2346
tp2347
a(VTGGCACTCACCTGCAGGTAG
p2348
g2
(g6
S'\x8f\x12[D\x8ba\xc8?'
p2349
tp2350
Rp2351
tp2352
a(VGTCGTGTCTTCACAGTACTC
p2353
g2
(g6
S'\xff\xd0\x01\x86;\xd0\xbf?'
p2354
tp2355
Rp2356
tp2357
a(VCCACCCAAGGAGAAGATTGA
p2358
g2
(g6
S'\xeb\xd4\x97\xd0\x1d\xb7\xca?'
p2359
tp2360
Rp2361
tp2362
a(VGAAGCCAGATGTCGAGAAGG
p2363
g2
(g6
S'\t\x8b\xdb\x7f\x9cD\xd2?'
p2364
tp2365
Rp2366
tp2367
a(VTAACACTTGGTTCACTGACT
p2368
g2
(g6
S'c\xbem\xba&#\x95?'
p2369
tp2370
Rp2371
tp2372
a(VAGACCTGTGCCATCTGGTCC
p2373
g2
(g6
S'\xaf\x00\xfa\x0b\xaa~\xb4?'
p2374
tp2375
Rp2376
tp2377
a(VGATTGCCACCTCTACATCAT
p2378
g2
(g6
S'\xa1\r`\x94\x17\xce\xc6?'
p2379
tp2380
Rp2381
tp2382
a(VCCAGGTAATAGGCGCGGGGC
p2383
g2
(g6
S'\xbe\x85\xb7\xff\xaf\xd7\x97?'
p2384
tp2385
Rp2386
tp2387
a(VCACTCCAGGGTAAGTTGGTC
p2388
g2
(g6
S'>c}\x08L\xd5m?'
p2389
tp2390
Rp2391
tp2392
a(VGCTTGGGCAGTGGCAGCAGC
p2393
g2
(g6
S'\x94\x85h\xda\xe9\xba\xcb?'
p2394
tp2395
Rp2396
tp2397
a(VGGCGGCTCCTCATCTTCTGG
p2398
g2
(g6
S'\xa0\x19\xcey\xe9\r\xd8?'
p2399
tp2400
Rp2401
tp2402
a(VCCAGCCAGAAGTTATCCTTC
p2403
g2
(g6
S'<\xe5\\\x809\x17\xd1?'
p2404
tp2405
Rp2406
tp2407
a(VCAGCCTTTAACACATGTCCC
p2408
g2
(g6
S'\xf0O\x1bhM\x92\xcc?'
p2409
tp2410
Rp2411
tp2412
a(VATGGGAGCAGTTACAGAAGA
p2413
g2
(g6
S'\xbc\x90\xff\xe33\x02\xcc?'
p2414
tp2415
Rp2416
tp2417
a(VCCCTGAAGCGGCCGCGGCTG
p2418
g2
(g6
S'\xee\xdbg\x9aR\x8c\x99?'
p2419
tp2420
Rp2421
tp2422
a(VCCCCCAAAACTGACAAACCG
p2423
g2
(g6
S'\x81w_\x86\xe0\x87\xde?'
p2424
tp2425
Rp2426
tp2427
a(VATCAGAAGCCGCAGATGAGA
p2428
g2
(g6
S'<\x13j\xeb\x7f7\xaa?'
p2429
tp2430
Rp2431
tp2432
a(VTTCCTACTGTAGGCTTGTCT
p2433
g2
(g6
S'\x83\xa0W\xc7\xe7\xd1\x8d?'
p2434
tp2435
Rp2436
tp2437
a(VCACCCAAGGAGAAGATTGAA
p2438
g2
(g6
S'\xd5\x92\xfb\x0e_\xd5\xc3?'
p2439
tp2440
Rp2441
tp2442
a(VTAGGTGAAGGTGTGAGCTGC
p2443
g2
(g6
S'\x96\xbcy+\xc4\x83c?'
p2444
tp2445
Rp2446
tp2447
a(VTGGCTCCACGTTGCAGTAGA
p2448
g2
(g6
S'\t\x9ep\xe6\xbfV\xc3?'
p2449
tp2450
Rp2451
tp2452
a(VCAGGTCACTAAAGGGAGTCG
p2453
g2
(g6
S'\xb6\x16Yw\x9b\x13\xc0?'
p2454
tp2455
Rp2456
tp2457
a(VCAGCACCACTCTCTTGGGGC
p2458
g2
(g6
S'\x89\xdd7\xf1\xe7q\xa5?'
p2459
tp2460
Rp2461
tp2462
a(VCATCGGAATCAAATATGCGC
p2463
g2
(g6
S'1\xae<q\xce\x02\xc2?'
p2464
tp2465
Rp2466
tp2467
a(VATAACCAGCCTGCTGTCTCT
p2468
g2
(g6
S'\xd4\x01\xedg\xe1\xcd\xc4?'
p2469
tp2470
Rp2471
tp2472
a(VGCTGTCTCTGGGGATGAGCA
p2473
g2
(g6
S'\xcbOGS\x7fe\xe3?'
p2474
tp2475
Rp2476
tp2477
a(VACTCCTTATGTTTCTCATGT
p2478
g2
(g6
S'\xf4A9Kus\xc0?'
p2479
tp2480
Rp2481
tp2482
a(VCTCAATCCTTGCCAGTCTGA
p2483
g2
(g6
S'\xcb\xe3$%!\xb7\xc8?'
p2484
tp2485
Rp2486
tp2487
a(VGGCTGCTCCACCCAGTACTG
p2488
g2
(g6
S'[X\xf8y\xdaa\xd1?'
p2489
tp2490
Rp2491
tp2492
a(VATTGGAGAAGGGTCAGCACC
p2493
g2
(g6
S'\x90\xf3\xb2\xb1\x08\x01\xb2?'
p2494
tp2495
Rp2496
tp2497
a(VTTTGGGTGGTGCAGGAGGTC
p2498
g2
(g6
S'\xf1\xae6\xa3?d\x90?'
p2499
tp2500
Rp2501
tp2502
a(VTCCATAGATTCTGAGAGCCC
p2503
g2
(g6
S'm\x85P\xa8\x1e\x1e\xc1?'
p2504
tp2505
Rp2506
tp2507
a(VACTTGGTTCACTGACTTGGC
p2508
g2
(g6
S'f\x83\x8eND\x1c\xc4?'
p2509
tp2510
Rp2511
tp2512
a(VCCAGGGTAAGTTGGTCGGGT
p2513
g2
(g6
S'\x82|\x0b\x16G\x98\xca?'
p2514
tp2515
Rp2516
tp2517
a(VTACCTGGGGGATGGGAAAAT
p2518
g2
(g6
S'\xab\xf6\x0c\x88\xe0\x1d\xa7?'
p2519
tp2520
Rp2521
tp2522
a(VGCACATAAGCAGGTCACTAA
p2523
g2
(g6
S'!\xdem\xf0\x1b\xa5\xc5?'
p2524
tp2525
Rp2526
tp2527
a(VTGTTGCCCTTGGTATCGATA
p2528
g2
(g6
S'\x16V\xbaS\xebQ\xc8?'
p2529
tp2530
Rp2531
tp2532
a(VATGACATCTCGGGTCTGCTT
p2533
g2
(g6
S'|{5\x121=\xb8?'
p2534
tp2535
Rp2536
tp2537
a(VCACTTCCTGCAGGCCCTGGC
p2538
g2
(g6
S'\xd4\xe4\xb0\x9b\x1c5\xc5?'
p2539
tp2540
Rp2541
tp2542
a(VGGATTGCCACCTCTACATCA
p2543
g2
(g6
S'>\xd3/76@\xbb?'
p2544
tp2545
Rp2546
tp2547
a(VAAGAGCTGGGAGTCATCTGA
p2548
g2
(g6
S'\xbc7LUV\xaa\xbc?'
p2549
tp2550
Rp2551
tp2552
a(VTCTAGCAGGGTAGGAGCAGG
p2553
g2
(g6
S'W\x96Z\x82\x9bk\xc2?'
p2554
tp2555
Rp2556
tp2557
a(VGAGGCACTGTCACACCATAA
p2558
g2
(g6
S'*\xb76R\x8b\x18\xe2?'
p2559
tp2560
Rp2561
tp2562
a(VGATGCTGCGCAGCACGTACT
p2563
g2
(g6
S'\x04\x02\x14X=6\xc2?'
p2564
tp2565
Rp2566
tp2567
a(VGGGCTCCCTTATCGATACCA
p2568
g2
(g6
S'\xd7\xde\xfd\xaa\x89i\xcd?'
p2569
tp2570
Rp2571
tp2572
a(VGGCTCCAGGTAATAGGCGCG
p2573
g2
(g6
S'\x99\xff\xb3\x8d\x0f\xd8\xd1?'
p2574
tp2575
Rp2576
tp2577
a(VTAGCAGAGTCAGGGCATGTT
p2578
g2
(g6
S'\ta\xc6\xf8VB\xb2?'
p2579
tp2580
Rp2581
tp2582
a(VGGACTGCCCTTCCCCTCACA
p2583
g2
(g6
S'&.]Gp1\xd6?'
p2584
tp2585
Rp2586
tp2587
a(VTGAGAAGCCAGATGTCGAGA
p2588
g2
(g6
S'E\x02\xbf\xa6\x04\r\xc4?'
p2589
tp2590
Rp2591
tp2592
a(VATGACGCCAGTCATGGTTGT
p2593
g2
(g6
S'4\xfbF\xb8\xec\xf7\xc7?'
p2594
tp2595
Rp2596
tp2597
a(VCACAGAGGTCTTATAAGAGG
p2598
g2
(g6
S'K&\x90\xda\x10X\xb5?'
p2599
tp2600
Rp2601
tp2602
a(VGCACTCCAGGGTAAGTTGGT
p2603
g2
(g6
S'\x03\xd2\x08z\xcb\\\xdb?'
p2604
tp2605
Rp2606
tp2607
a(VACTAGGACAGCACAGGAGGA
p2608
g2
(g6
S'5\xe7\xd1n\xa3\xea\xc5?'
p2609
tp2610
Rp2611
tp2612
a(VTTACCTGCAACTTCTTCGCC
p2613
g2
(g6
S'\xa7&\x84\xb8\xb9\xbb\xe0?'
p2614
tp2615
Rp2616
tp2617
a(VCCTCTACAGCCAGGTGCACC
p2618
g2
(g6
S'y{)\x9f\x92\xb1\xb5?'
p2619
tp2620
Rp2621
tp2622
a(VGGGGCTGTGGTTCCACGATA
p2623
g2
(g6
S'\xb7\xea[b<\xb5\xab?'
p2624
tp2625
Rp2626
tp2627
a(VCCAGCGATAAGAAGGGCTGC
p2628
g2
(g6
S'{j\x83\x80m\xde\xb3?'
p2629
tp2630
Rp2631
tp2632
a(VAGGACTCTGAGCCAGGGGCC
p2633
g2
(g6
S"a\xce'\x83\x87\x8f\xad?"
p2634
tp2635
Rp2636
tp2637
a(VACGAACACCGGCCCCTGAAG
p2638
g2
(g6
S'JJ+\xd2\x85W\xd0?'
p2639
tp2640
Rp2641
tp2642
a(VGACTGCTGGACAATGAGGAT
p2643
g2
(g6
S'\t\x8d\x8bcWl\xb1?'
p2644
tp2645
Rp2646
tp2647
a(VGCCGCGGCCGCTTCAGGGGC
p2648
g2
(g6
S'\x1e\x05\x0e\xbc\xe8\x98\xb6?'
p2649
tp2650
Rp2651
tp2652
a(VTGGAGCCTTGCCTGTAGTTA
p2653
g2
(g6
S'a\xbe@9\x9ft\x91?'
p2654
tp2655
Rp2656
tp2657
a(VTACTACCGGCCAGGGCCTGC
p2658
g2
(g6
S'\xa8A}=\xf2\x16\x94?'
p2659
tp2660
Rp2661
tp2662
a(VGCAGGATCATCAAAGGGAGA
p2663
g2
(g6
S'\r\xd4\x8fq\xb8k\xe4?'
p2664
tp2665
Rp2666
tp2667
a(VTCTGGTCCTGGTTGAGGATG
p2668
g2
(g6
S'\xd16\x9e\xd28\x89\xbc?'
p2669
tp2670
Rp2671
tp2672
a(VGGGTGGTGCAGGAGGTCCGG
p2673
g2
(g6
S'PU\x85,)\\\xd3?'
p2674
tp2675
Rp2676
tp2677
a(VGAAACTGCAGGAGGACATCC
p2678
g2
(g6
S'Q\x1a2j3X\xa4?'
p2679
tp2680
Rp2681
tp2682
a(VCCGTCAGCACCACTCTCTTG
p2683
g2
(g6
S'\xda\x00\xbd\x87\x83x\xc5?'
p2684
tp2685
Rp2686
tp2687
a(VATCGGAATCAAATATGCGCT
p2688
g2
(g6
S'R\xb7\xae\xf6\x82\x1f\xd3?'
p2689
tp2690
Rp2691
tp2692
a(VTCTTCCTTCTTACTGAAAAT
p2693
g2
(g6
S"'\xa5^\xbfy4\xda?"
p2694
tp2695
Rp2696
tp2697
a(VAGGCACTACTCACATTGTTA
p2698
g2
(g6
S'A\xe7=\xe7\xd1\xc1\xc1?'
p2699
tp2700
Rp2701
tp2702
a(VCCTTCTGTTTGGGGTCCTGA
p2703
g2
(g6
S'\xdd\x9f\xcf\xa3\x89\x07\xe4?'
p2704
tp2705
Rp2706
tp2707
a(VACCAAGGGCAACAAGATTGC
p2708
g2
(g6
S'\x19\xe3\xb9z\xf2\t\xb3?'
p2709
tp2710
Rp2711
tp2712
a(VAATAACCAGCCTGCTGTCTC
p2713
g2
(g6
S'\xb1\x05\xe0F\x9a\xdd\x90?'
p2714
tp2715
Rp2716
tp2717
a(VAGTTGGGGGCTGAGGAGCAG
p2718
g2
(g6
S'\x84\x8f\na\n\x16\xc8?'
p2719
tp2720
Rp2721
tp2722
a(VACATCGGGAGGCCCCAGCCG
p2723
g2
(g6
S'\x8fZ\r\xfb\xd0\x04\xe7?'
p2724
tp2725
Rp2726
tp2727
a(VTTGTGCTCTGGGTCATCGGC
p2728
g2
(g6
S' d=\xdb\xc1\r\xd2?'
p2729
tp2730
Rp2731
tp2732
a(VGTGGCTCCAGGTAATAGGCG
p2733
g2
(g6
S'\xbfk\xa7\x18\xadD\xdf?'
p2734
tp2735
Rp2736
tp2737
a(VGGAGATCGAGCAGCAGATCA
p2738
g2
(g6
S'i\xf9m\xc7U\xde\xaf?'
p2739
tp2740
Rp2741
tp2742
a(VGGAGGTCAGTCCATGTCCAT
p2743
g2
(g6
S'\xb0Q\xbd\xd2\x85\xda\xd8?'
p2744
tp2745
Rp2746
tp2747
a(VTCAATCTTCTCCTTGGGTGG
p2748
g2
(g6
S'\xaa\x87\n\x03\x061\xe2?'
p2749
tp2750
Rp2751
tp2752
a(VTTGCTGCTGCCGGTACACAG
p2753
g2
(g6
S'\xb1$d\x13\xa5\x9c\xe5?'
p2754
tp2755
Rp2756
tp2757
a(VTGGCGAAGGCGCTGTCCTTG
p2758
g2
(g6
S'\xad\xaa\xcc\xd19\xf8\x9f?'
p2759
tp2760
Rp2761
tp2762
a(VGTGGACCGGCGAGTGGCTCG
p2763
g2
(g6
S'\t\xbb\xee\xceV5\x93?'
p2764
tp2765
Rp2766
tp2767
a(VTCCTGGAAAATGGGAGCACT
p2768
g2
(g6
S'5\xe0\r\x18\ra\xb8?'
p2769
tp2770
Rp2771
tp2772
a(VACATACCTGCAGTAGCTTCC
p2773
g2
(g6
S"' I\xf0V\xfb\xaa?"
p2774
tp2775
Rp2776
tp2777
a(VGGTGGGGATGCTTTACTTGT
p2778
g2
(g6
S'\x80G\xe7\x0b@t\xbf?'
p2779
tp2780
Rp2781
tp2782
a(VTGTTACCCTCTGGCATGGGC
p2783
g2
(g6
S'\x8e\x14\x8f`\xea\xf4\xc3?'
p2784
tp2785
Rp2786
tp2787
a(VCCCCAAAACTGACAAACCGG
p2788
g2
(g6
S'\xb9\xec\x17\xb9\x95\x18\xe1?'
p2789
tp2790
Rp2791
tp2792
a(VGAAGAGACAGGCGGAGATTG
p2793
g2
(g6
S'\xfcqGt\xd9,\xb4?'
p2794
tp2795
Rp2796
tp2797
a(VCTGGTGCTAACATGTCTGAA
p2798
g2
(g6
S'\x14\xb7\x02\xf1WT\xb6?'
p2799
tp2800
Rp2801
tp2802
a(VTGGCTCCAGGTAATAGGCGC
p2803
g2
(g6
S'\xa23\x87\xa9\xcf\x03\xb6?'
p2804
tp2805
Rp2806
tp2807
a(VACATGTGTTAAAGGCTGCTG
p2808
g2
(g6
S'1\xfe\xa1\x8c\xfd\x14\xc6?'
p2809
tp2810
Rp2811
tp2812
a(VCCCACCCGACCAACTTACCC
p2813
g2
(g6
S'\xa6Y\x1f]\x0c\xa8\xc7?'
p2814
tp2815
Rp2816
tp2817
a(VAGGATTGAAGCTGACGTTCT
p2818
g2
(g6
S'\x94\xf7\x9c\xb4\xa3Jj?'
p2819
tp2820
Rp2821
tp2822
a(VGGCTTCCTGCGACCAGTGTC
p2823
g2
(g6
S'q\xdcs\xaa\xc6\xdc\xb7?'
p2824
tp2825
Rp2826
tp2827
a(VTCCCCTCACAGGGCATAGTA
p2828
g2
(g6
S'\xe6\xc1\x9e\xf5w\x96\xc9?'
p2829
tp2830
Rp2831
tp2832
a(VTCCTTCTGTTTGGGGTCCTG
p2833
g2
(g6
S'@\xef\xd2\xf5`\xac\xb4?'
p2834
tp2835
Rp2836
tp2837
a(VGGGAGCAGAAAGGGAGCCAG
p2838
g2
(g6
S'\x07c\xbb\xb0r\xde\xd5?'
p2839
tp2840
Rp2841
tp2842
a(VGCTCACACCTTCACCTACAC
p2843
g2
(g6
S'\xd8\xfd\x860N\x81\xd0?'
p2844
tp2845
Rp2846
tp2847
a(VGTTGCCCTTGGTATCGATAA
p2848
g2
(g6
S'G\xfd\x07\xee\xc6\xf6\xd1?'
p2849
tp2850
Rp2851
tp2852
a(VTGTAATACCCTTCCTGACAC
p2853
g2
(g6
S'}\x8e\xbdNR\xaf\xd2?'
p2854
tp2855
Rp2856
tp2857
a(VTGGACTGCCCTTCCCCTCAC
p2858
g2
(g6
S'\xb5C\x91(\x93\x9e\x9a?'
p2859
tp2860
Rp2861
tp2862
a(VCCAGTCAGACAGTCTGGAAA
p2863
g2
(g6
S'\x0f\xf9\xf2\xf8y\xb0\xcc?'
p2864
tp2865
Rp2866
tp2867
a(VCGTCAGCTTCAATCCTGCCA
p2868
g2
(g6
S'\xcd,`\x07p(\xc0?'
p2869
tp2870
Rp2871
tp2872
a(VACTATGGAATGGGCCCGGGT
p2873
g2
(g6
S'X\x10\xe4O=\x1a\xca?'
p2874
tp2875
Rp2876
tp2877
a(VGAGTGCAAGTATACATGTTG
p2878
g2
(g6
S'$\xa9u\xb08\xfb\xb2?'
p2879
tp2880
Rp2881
tp2882
a(VATGGTTGTGGGCAGCACTCC
p2883
g2
(g6
S'\x92\xd9\x9d\x11L\x05Z?'
p2884
tp2885
Rp2886
tp2887
a(VCCCCTCACAGGGCATAGTAG
p2888
g2
(g6
S'\x7f?\x88\xa6\xe4\xe3\xd8?'
p2889
tp2890
Rp2891
tp2892
a(VTGTTAGCACCAGCGATAAGA
p2893
g2
(g6
S'\xbf\xb8\x08\x17\xe8\x96\xc0?'
p2894
tp2895
Rp2896
tp2897
a(VAACCAGGGTTTGGGTGGTGC
p2898
g2
(g6
S'\xa6\xf03=G5\x9d?'
p2899
tp2900
Rp2901
tp2902
a(VGGACGGTATGGGTCCACACG
p2903
g2
(g6
S']\x8a\xd6J\x1b\xa0\xd5?'
p2904
tp2905
Rp2906
tp2907
a(VGTTTGCAATCATCTAAGTAC
p2908
g2
(g6
S'\xd2\xd7\xfb\xa6\x13}\xc5?'
p2909
tp2910
Rp2911
tp2912
a(VCCAAGTGTTAATGGCACTCT
p2913
g2
(g6
S'!\xfe\xe0\xcay\xc9~?'
p2914
tp2915
Rp2916
tp2917
a(VCCGGGGACCAGGGGCTCCAA
p2918
g2
(g6
S'\xd0#S\xf9/\xf4\xa1?'
p2919
tp2920
Rp2921
tp2922
a(VCGAGCAGCAGATCAAGGAGC
p2923
g2
(g6
S'PF\xbd)\xaa\xd3\xb9?'
p2924
tp2925
Rp2926
tp2927
a(VGTACACAGAGGTCTTATAAG
p2928
g2
(g6
S'\x05\x12\xfb\xa1%!\xe6?'
p2929
tp2930
Rp2931
tp2932
a(VGGTCCCTTCAATCTTCTCCT
p2933
g2
(g6
S'\x02\xe6\x8c\xeeA\x84\xd8?'
p2934
tp2935
Rp2936
tp2937
a(VGTACTGGGTGGAGCAGCCCC
p2938
g2
(g6
S'~\x19\xa8f\xb8\x1c\xe5?'
p2939
tp2940
Rp2941
tp2942
a(VAGCCGTCAGCACCACTCTCT
p2943
g2
(g6
S'cn\xce\xf3m\xe2x?'
p2944
tp2945
Rp2946
tp2947
a(VTGTGCCTGCAGAAGGAGTTG
p2948
g2
(g6
S'\xba\xb9`\xbf\x13\x12\xd3?'
p2949
tp2950
Rp2951
tp2952
a(VCAAGCGTGCATACATGAACC
p2953
g2
(g6
S'.b\x00*\x1a\xc0\xb9?'
p2954
tp2955
Rp2956
tp2957
a(VGACAGGCAGTTGAAGTTCGC
p2958
g2
(g6
S'T\xdf\x827gn\xbe?'
p2959
tp2960
Rp2961
tp2962
a(VCCCCCACTTCCTGCAGGCCC
p2963
g2
(g6
S'{\xb1\xcf\x1a\xbe\xb0\x99?'
p2964
tp2965
Rp2966
tp2967
a(VGATCTGCTCCAGAACATTCC
p2968
g2
(g6
S'\xc8M\xdf\xfb\xb3\xd0\xc7?'
p2969
tp2970
Rp2971
tp2972
a(VCGCTTTATGCGCTGCCGCTG
p2973
g2
(g6
S'0\x0b\xd4\xff\xc5u\x96?'
p2974
tp2975
Rp2976
tp2977
a(VGATATCTTCAGCAGTGGGGA
p2978
g2
(g6
S'r\xc5\xcf\xc3,\x9b\xcd?'
p2979
tp2980
Rp2981
tp2982
a(VGGCTCTAGCAGGGTAGGAGC
p2983
g2
(g6
S'\xb7\xd0\x1e\xfa\xb1s\xb5?'
p2984
tp2985
Rp2986
tp2987
a(VTCAAAGGGAGAGGGAGGCCG
p2988
g2
(g6
S'\xe6M\x01\r\x8f\x8d\xea?'
p2989
tp2990
Rp2991
tp2992
a(VCTATAACACACCTTAACTAC
p2993
g2
(g6
S'\xf1\xca5\xd2@\x96\xb7?'
p2994
tp2995
Rp2996
tp2997
a(VACGGAGACTGGCCCTGCAGC
p2998
g2
(g6
S'\xb7\n\xca\x83\xe00\xa6?'
p2999
tp3000
Rp3001
tp3002
a(VCCATAAGGGCCGCTCCGACC
p3003
g2
(g6
S'X\xbb\xe1\xcf\xd4\x11\x9a?'
p3004
tp3005
Rp3006
tp3007
a(VGGGCCGCTGTTGCAGGTGGC
p3008
g2
(g6
S'\xdc\x81:\xe5\xd1\xcd\xc4?'
p3009
tp3010
Rp3011
tp3012
a(VCGACTGCTGGACAATGAGGA
p3013
g2
(g6
S'A\x17G\xc4\x18\xc1\xce?'
p3014
tp3015
Rp3016
tp3017
a(VTCCTCTAACAATGGCACTTG
p3018
g2
(g6
S'<\xef\x15\xc9\x96f\x98?'
p3019
tp3020
Rp3021
tp3022
a(VCTGGTGCACCTGGCTGTAGA
p3023
g2
(g6
S'\x1f\x13\rx\xb77\xb5?'
p3024
tp3025
Rp3026
tp3027
a(VAGAGGGAGGCCGGGGACCAG
p3028
g2
(g6
S'Q\x84\xf0B\x1cf\xb2?'
p3029
tp3030
Rp3031
tp3032
a(VGGAGGCACTGTCACACCATA
p3033
g2
(g6
S'\xcf>\x12\xd3\xde\xd0\xcf?'
p3034
tp3035
Rp3036
tp3037
a(VCTTATAAGACCTCTGTGTAC
p3038
g2
(g6
S'a\x83\xdeK|V\xd6?'
p3039
tp3040
Rp3041
tp3042
a(VATGACTCCCAGCTCTTCCTA
p3043
g2
(g6
S'\xe9"\xb8\xa3\x95\x01\xd6?'
p3044
tp3045
Rp3046
tp3047
a(VGAGCCACTCGCCGGTCCACT
p3048
g2
(g6
S'\x8ek\x1b\xfdj\xd9\xd5?'
p3049
tp3050
Rp3051
tp3052
a(VCGGCCAGGGCCTGCAGGAAG
p3053
g2
(g6
S'-\xcda\x82\x10Lr?'
p3054
tp3055
Rp3056
tp3057
a(VCACATAAGCAGGTCACTAAA
p3058
g2
(g6
S'\xcbHq\x19-c\xd7?'
p3059
tp3060
Rp3061
tp3062
a(VTGCAGGTAGTGGCTGGTTCT
p3063
g2
(g6
S'\x13\xb8\x91\x8c~/\x91?'
p3064
tp3065
Rp3066
tp3067
a(VCCTTCAATCTTCTCCTTGGG
p3068
g2
(g6
S'\xeb\x1c\xc1\x95\x05v\xb7?'
p3069
tp3070
Rp3071
tp3072
a(VGCAAGTGGTATGACATGCCA
p3073
g2
(g6
S'\x1e\xe8"7#\xe0\xd1?'
p3074
tp3075
Rp3076
tp3077
a(VCTGGGAAGTCTGCAAACCGT
p3078
g2
(g6
S"'\x025\xb2\xb4\x9e\xd1?"
p3079
tp3080
Rp3081
tp3082
a(VCAGGGTTTGGGTGGTGCAGG
p3083
g2
(g6
S'`gz\xf1\x94\xc1\xa6?'
p3084
tp3085
Rp3086
tp3087
a(VGCAAAGATATCTTCAGCAGT
p3088
g2
(g6
S'2n\xdf\xadp\xee\xd9?'
p3089
tp3090
Rp3091
tp3092
a(VCATAAGGGCCGCTCCGACCC
p3093
g2
(g6
S'\xa8a*\xc3\xd9)\xb4?'
p3094
tp3095
Rp3096
tp3097
a(VGGGGGCACCATGGTACCTGC
p3098
g2
(g6
S'\xad\xee\xa2\xf9\xad\xe7\xb6?'
p3099
tp3100
Rp3101
tp3102
a(VCGGGTGGGCAGCTTCTGCAT
p3103
g2
(g6
S'!\xf8\x8c\x02L\xb2\xb3?'
p3104
tp3105
Rp3106
tp3107
a(VCCAGGAGATGAACTCCCTCT
p3108
g2
(g6
S'?\xafaN\x1c\xf5\xc5?'
p3109
tp3110
Rp3111
tp3112
a(VAACTACAGGCAAGGCTCCAT
p3113
g2
(g6
S'g\x1fp\xcc\xce|\xa1?'
p3114
tp3115
Rp3116
tp3117
a(VGTGATGATCTGAGTCCATTC
p3118
g2
(g6
S'*\x18\x14T\xf4\n\xb0?'
p3119
tp3120
Rp3121
tp3122
a(VCCTGGTGCACCTGGCTGTAG
p3123
g2
(g6
S'\x14\xb5\xfc\x0c\xe4\xe3\xa1?'
p3124
tp3125
Rp3126
tp3127
a(VGCCTAGCCCCGTGTAGGTGA
p3128
g2
(g6
S'\xdd<p\xf6P`\xcb?'
p3129
tp3130
Rp3131
tp3132
a(VCCCGTGAACCACAGGGGATG
p3133
g2
(g6
S"\xafO;'\xb6\xb5\xa3?"
p3134
tp3135
Rp3136
tp3137
a(VTTCCCCTCACAGGGCATAGT
p3138
g2
(g6
S'\x8e\xb4G\xb4\x8c\xf0\xab?'
p3139
tp3140
Rp3141
tp3142
a(VTCAGGTCTCCCGGAATGTTC
p3143
g2
(g6
S'\xff\x9e\xe3\x99S\xa6\xc3?'
p3144
tp3145
Rp3146
tp3147
a(VTTCGTAGCTCAAGATCCCGA
p3148
g2
(g6
S'\x19\x14\x17\x91r\xa1\xdc?'
p3149
tp3150
Rp3151
tp3152
a(VTCCCTTTGTAACCGAATCTT
p3153
g2
(g6
S'\xb04\x95\xea\xa7\xa4\xa0?'
p3154
tp3155
Rp3156
tp3157
a(VGCCCCACACAGACGTGCATA
p3158
g2
(g6
S'\xf0\xc3\xe3\xd0\x92/\x95?'
p3159
tp3160
Rp3161
tp3162
a(VAGCAAAGATATCTTCAGCAG
p3163
g2
(g6
S'\xf5\x87\xfe\xba\xe7\x01\xbd?'
p3164
tp3165
Rp3166
tp3167
a(VCTAGTTGGGGGCTGAGGAGC
p3168
g2
(g6
S'\x83\xf9\xb9\x0e\xc6iw?'
p3169
tp3170
Rp3171
tp3172
a(VAGTTATCCTTCTGGTTCACT
p3173
g2
(g6
S'\xc5\x9f4\x16E\xf6\xa7?'
p3174
tp3175
Rp3176
tp3177
a(VGGAGCGCCAGTCAGACAGTC
p3178
g2
(g6
S'-\x9e\xda\x16\xee\xa7\xb1?'
p3179
tp3180
Rp3181
tp3182
a(VGGGCGAGATCTTCTGTTTGG
p3183
g2
(g6
S"\xad\x03\xa6'\xba\x1b\xcf?"
p3184
tp3185
Rp3186
tp3187
a(VCCCAGAGTGCCATTAACACT
p3188
g2
(g6
S'!>M\xb9\x04\x98\xc8?'
p3189
tp3190
Rp3191
tp3192
a(VGGCAGAAGCGGCGACGCAAC
p3193
g2
(g6
S'\x87\xa8/<\x10\x88\xb8?'
p3194
tp3195
Rp3196
tp3197
a(VGTGGGATTGCAGCAACACAC
p3198
g2
(g6
S'\x89\x05\xda\xf7\x8a\t\xd4?'
p3199
tp3200
Rp3201
tp3202
a(VCAGTCCATGTCCATAGGTGG
p3203
g2
(g6
S'\x1aW\xb2\x1cN\xc4\xd5?'
p3204
tp3205
Rp3206
tp3207
a(VGTGGGATTACACCGAGAAGC
p3208
g2
(g6
S'\x0f\xbd\xf5\xfc\x91\xeb\xbe?'
p3209
tp3210
Rp3211
tp3212
a(VACTCACGCAACTAGCCAAAA
p3213
g2
(g6
S'OC\x84\x1a\xe6\x8d\xc5?'
p3214
tp3215
Rp3216
tp3217
a(VTCAGTCCATGTCCATAGGTG
p3218
g2
(g6
S'iK\x88\x7f\xf9 \xc3?'
p3219
tp3220
Rp3221
tp3222
a(VTGGGTGTCTGCTGCAGTGTC
p3223
g2
(g6
S'\xde\x0bx\x0b\xb7\x8b\x91?'
p3224
tp3225
Rp3226
tp3227
a(VGGTTCAGGCTTCACTGTGAC
p3228
g2
(g6
S'UZ\n>\x89,\xc1?'
p3229
tp3230
Rp3231
tp3232
a(VCTTCAATCTTCTCCTTGGGT
p3233
g2
(g6
S'+\xf0\xcc\x06\xc4d\xb7?'
p3234
tp3235
Rp3236
tp3237
a(VCACAACCATGACTGGCGTCA
p3238
g2
(g6
S'\xd6Y\xae0\xdd!\x8e?'
p3239
tp3240
Rp3241
tp3242
a(VCAGCGCATATTTGATTCCGA
p3243
g2
(g6
S'q\xefT\x9f/F\xd7?'
p3244
tp3245
Rp3246
tp3247
a(VGTGGCTGGTTCTGGGTGTAC
p3248
g2
(g6
S'#\xa6o\x92\x19\x81\x8e?'
p3249
tp3250
Rp3251
tp3252
a(VCCCCTGAAGCGGCCGCGGCT
p3253
g2
(g6
S'\x17(@Lv\xf7\x8e?'
p3254
tp3255
Rp3256
tp3257
a(VGCCACTGCCCCCAGAAGATG
p3258
g2
(g6
S'4S\x10\xf20\xe3\xc6?'
p3259
tp3260
Rp3261
tp3262
a(VCCTGCAGGAAGTGGGGGCTG
p3263
g2
(g6
S'\x91[\xa0\x98Md\xa7?'
p3264
tp3265
Rp3266
tp3267
a(VCTATCTTTGCCTGGAGCTGT
p3268
g2
(g6
S'\xd1ogx\x16q\xc9?'
p3269
tp3270
Rp3271
tp3272
a(VGGCTTGGTCTTGCTGCTGCT
p3273
g2
(g6
S'\x19\xa4vED\xdf\xd7?'
p3274
tp3275
Rp3276
tp3277
a(VCAGCGGTTGGTCGTACTGTT
p3278
g2
(g6
S'?\x89\x9a\xab\x909\x9f?'
p3279
tp3280
Rp3281
tp3282
a(VCTTCCAGAGGAGGAGGGAGG
p3283
g2
(g6
S'\xc3YV\t2\xdc\xb6?'
p3284
tp3285
Rp3286
tp3287
a(VCCAACCGCTGGTTGCACTCA
p3288
g2
(g6
S'\xe1\x89\xb10j\x15\x98?'
p3289
tp3290
Rp3291
tp3292
a(VCACCAGCAGGCCCCCACCTA
p3293
g2
(g6
S'\x9e1\xad\xfc\x1b|m?'
p3294
tp3295
Rp3296
tp3297
a(VTGCCCTTATGCACGTCTGTG
p3298
g2
(g6
S'H\x9b\xa3\xc1\x7fP\x9d?'
p3299
tp3300
Rp3301
tp3302
a(VAGTCCGAGTGGACCGGCGAG
p3303
g2
(g6
S'][\xc14\xe1\x9e\xc7?'
p3304
tp3305
Rp3306
tp3307
a(VGTGCCTGCAGAAGGAGTTGG
p3308
g2
(g6
S'\xd1\xe8\x97S\xc5.\xe0?'
p3309
tp3310
Rp3311
tp3312
a(VGGGGCAGTGGCAGTGGCTCC
p3313
g2
(g6
S'\xd8z\x8e\xe1\x14\xcax?'
p3314
tp3315
Rp3316
tp3317
a(VGCAGAGACAGGGTCATCTTC
p3318
g2
(g6
S'\xcc\xb6\x91\xba\xb6\x1a\xcc?'
p3319
tp3320
Rp3321
tp3322
a(VGGTCAGTCCATGTCCATAGG
p3323
g2
(g6
S'/\xae\xc8\x1a\xbb\xa5\xc3?'
p3324
tp3325
Rp3326
tp3327
a(VTTCTTGCGTTCCTCAGTACT
p3328
g2
(g6
S'V\xb6\x9d#\xe3\xb2\xba?'
p3329
tp3330
Rp3331
tp3332
a(VACAACCATGACTGGCGTCAT
p3333
g2
(g6
S'p\xdf\xb9\xe3\x8c"\xc7?'
p3334
tp3335
Rp3336
tp3337
a(VTCCTCATCTTCTGGGGGCAG
p3338
g2
(g6
S'(]\xe1\xfa\x03\xa7\xb6?'
p3339
tp3340
Rp3341
tp3342
a(VGGGGGCTGTGGTTCCACGAT
p3343
g2
(g6
S'\x10\x01\xa8^\x8e\x89\xae?'
p3344
tp3345
Rp3346
tp3347
a(VGGAATGGGCCCGGGTCGGAG
p3348
g2
(g6
S'\x81R)\x80\xa6\xa1\xd7?'
p3349
tp3350
Rp3351
tp3352
a(VGCCAGCAATCTTGTTGCCCT
p3353
g2
(g6
S'\xc8d\xa18\xa8F\xb1?'
p3354
tp3355
Rp3356
tp3357
a(VTTGCTATCCACATCGACTGC
p3358
g2
(g6
S'\xc5c\x04)\xb8%\xb9?'
p3359
tp3360
Rp3361
tp3362
a(VTCTCGACATCTGGCTTCTCA
p3363
g2
(g6
S'\x9b\xa6\xfdF\xa3\x91\xc2?'
p3364
tp3365
Rp3366
tp3367
a(VCCTATTGTGCCTCTGAATCC
p3368
g2
(g6
S'\xbb\re\x06\xfc\xaa\xad?'
p3369
tp3370
Rp3371
tp3372
a(VATGCTGAGCGTGCTCATCAA
p3373
g2
(g6
S'\x05B\xd1\x8d\xc7D\xba?'
p3374
tp3375
Rp3376
tp3377
a(VCCCCAGCCGCGGCCGCTTCA
p3378
g2
(g6
S'\xf92\x86v\xa4\xb3\x9f?'
p3379
tp3380
Rp3381
tp3382
a(VTGCTCACACCATCCAGCTGC
p3383
g2
(g6
S'\x8fg\xa4\x99\x7f\xd8\x80?'
p3384
tp3385
Rp3386
tp3387
a(VAGGAGGACATCCTGGAAAAT
p3388
g2
(g6
S'\xad\x03\x1d6\\\xa7\xbb?'
p3389
tp3390
Rp3391
tp3392
a(VCACCTGCAACAGCGGCCCAG
p3393
g2
(g6
S'\xfbLI\x18\xfez\xc7?'
p3394
tp3395
Rp3396
tp3397
a(VTTCAATCTTCTCCTTGGGTG
p3398
g2
(g6
S'uK.\xa3\xb1&\xa3?'
p3399
tp3400
Rp3401
tp3402
a(VCCACCTCCTCCCTCCTCCTC
p3403
g2
(g6
S't:\xe4\xf4b\x19\xa9?'
p3404
tp3405
Rp3406
tp3407
a(VGATAGCAAATGAGCTGCATG
p3408
g2
(g6
S'Z\xa8-\\\xf3\xb6\xbb?'
p3409
tp3410
Rp3411
tp3412
a(VCCAGGGCGAGATCTTCTGTT
p3413
g2
(g6
S'\x90-\x08;~\x95\xd4?'
p3414
tp3415
Rp3416
tp3417
a(VTGCAGGTCCGTGCAAAGTTG
p3418
g2
(g6
S'\xb22\xc6\xf9.\xb4\xd2?'
p3419
tp3420
Rp3421
tp3422
a(VTGCAAACCGTAGGAAGAGCT
p3423
g2
(g6
S'T}\xa2C\xc4s\xb7?'
p3424
tp3425
Rp3426
tp3427
a(VTGGGCAAGATGGCGGCCTTC
p3428
g2
(g6
S'\xb2\xc8\x9a\x84\x17\xec\xa0?'
p3429
tp3430
Rp3431
tp3432
a(VCAGAGTTGTCTCACCTTGGC
p3433
g2
(g6
S'\xa1\x8a\x13FP\x08\xba?'
p3434
tp3435
Rp3436
tp3437
a(VTTCTATGCCCTCAGGATCCA
p3438
g2
(g6
S'\xe3\x04s\xe2\x15b\xdc?'
p3439
tp3440
Rp3441
tp3442
a(VCAGCAACACACAGGCCCTGC
p3443
g2
(g6
S'\x9b09l]\x95\xb1?'
p3444
tp3445
Rp3446
tp3447
a(VATCCTGGAAAATGGGAGCAC
p3448
g2
(g6
S'\xd1@}\xe28\xa4\x9c?'
p3449
tp3450
Rp3451
tp3452
a(VGCTGCGTTTCTTGCCCTTGG
p3453
g2
(g6
S'\xe6\xd5\xe0M\x1c\x18\xc0?'
p3454
tp3455
Rp3456
tp3457
a(VTCGTGTCTTCACAGTACTCT
p3458
g2
(g6
S'\xde\x89\xce<\xfd\xc3\x8d?'
p3459
tp3460
Rp3461
tp3462
a(VTGCTGGTGCACATAGCCACT
p3463
g2
(g6
S'|\xd23\x04\x9a\xa4\xdd?'
p3464
tp3465
Rp3466
tp3467
a(VTTCTCGACATCTGGCTTCTC
p3468
g2
(g6
S'\xfa\xf8\xa7\xfb\xd0j\x88?'
p3469
tp3470
Rp3471
tp3472
a(VTTGGAACAGTCCGAGTGGAC
p3473
g2
(g6
S'u\xc6\xf2\x0c\xecA\xb1?'
p3474
tp3475
Rp3476
tp3477
a(VAGATCATCACCAAGTACTTA
p3478
g2
(g6
S'd\x9e\xe3CS\xed\xb1?'
p3479
tp3480
Rp3481
tp3482
a(VCCTCAAAGACCTGTGCCATC
p3483
g2
(g6
S'<iNO9U\xc8?'
p3484
tp3485
Rp3486
tp3487
a(VAATATGTTGGTACTGGGCTG
p3488
g2
(g6
S'\x98\x19$\xe7>e\xd4?'
p3489
tp3490
Rp3491
tp3492
a(VCTGGGCACTCATTGGAGTCA
p3493
g2
(g6
S'\xd1*\x98\xd0\xdb\xda\x93?'
p3494
tp3495
Rp3496
tp3497
a(VCAGGCCCCCACCTATGGACA
p3498
g2
(g6
S'\xdb\x92x \x82\x0f\xab?'
p3499
tp3500
Rp3501
tp3502
a(VAGTGGCTGGCACTCACCTGC
p3503
g2
(g6
S'\xc1 ?\xd4\xe3\xa2\xc5?'
p3504
tp3505
Rp3506
tp3507
a(VGCGCCTTCGCCAACAGCTCC
p3508
g2
(g6
S'i\x85\x8e\xc2\x9a\xef\xb4?'
p3509
tp3510
Rp3511
tp3512
a(VTCAAAGAGAACACTGGAACT
p3513
g2
(g6
S'[&\x86\x8ed)\xba?'
p3514
tp3515
Rp3516
tp3517
a(VTCTTCTGGGGGCAGTGGCAG
p3518
g2
(g6
S'\x00\xefaR#\xc4\xb6?'
p3519
tp3520
Rp3521
tp3522
a(VTGGCAGTGGTGGTCGGAGGC
p3523
g2
(g6
S'\xd5b\xdeM1\xb3\x81?'
p3524
tp3525
Rp3526
tp3527
a(VCGCAAGAAGAAGTCCACCAA
p3528
g2
(g6
S'\x15D\n\x89\xa7\xe3\xc7?'
p3529
tp3530
Rp3531
tp3532
a(VTTCTCCCTTTAGCAGAGTCA
p3533
g2
(g6
S'\rnED,\xc0\xc9?'
p3534
tp3535
Rp3536
tp3537
a(VATCAAAGGGAGAGGGAGGCC
p3538
g2
(g6
S'D\x1f\x87\x1c\xb6\x88\x83?'
p3539
tp3540
Rp3541
tp3542
a(VTGTCATCACGTGTGAGCCAC
p3543
g2
(g6
S'"\xe3\xbe\xc6\x0fD\x9d?'
p3544
tp3545
Rp3546
tp3547
a(VGCACCGCAGGTTGCTGCTGC
p3548
g2
(g6
S'h<X\x99\x05\xe7\xb6?'
p3549
tp3550
Rp3551
tp3552
a(VAGGCGGCTCCTCATCTTCTG
p3553
g2
(g6
S'!H\x8a:\x063\xc2?'
p3554
tp3555
Rp3556
tp3557
a(VGTCAGTCCATGTCCATAGGT
p3558
g2
(g6
S')E\x1e\xcd\x003\xbd?'
p3559
tp3560
Rp3561
tp3562
a(VTGTAACCGAATCTTTGGATT
p3563
g2
(g6
S'\x14\x06I\xc5\x1dt\xb4?'
p3564
tp3565
Rp3566
tp3567
a(VGATGCGGAACTGAAAGGTTC
p3568
g2
(g6
S'\x05\x85\x16\x19\xea\x1e\xbe?'
p3569
tp3570
Rp3571
tp3572
a(VCTACGGTTTGCAGACTTCCC
p3573
g2
(g6
S'\x06we\xec\x8b\x91\xc6?'
p3574
tp3575
Rp3576
tp3577
a(VAGCCAGCAGGTGGCGGTCGC
p3578
g2
(g6
S'\xd8\x94\xa5\x82\xfc\xffw?'
p3579
tp3580
Rp3581
tp3582
a(VCCTTCAGCCTCCTTGTGCTC
p3583
g2
(g6
S'\x95v\xe9\xad!;\xac?'
p3584
tp3585
Rp3586
tp3587
a(VCCTGTGCCTGCAGAAGGAGT
p3588
g2
(g6
S'\x1f\xfb\xb9\x9eq\xac\xad?'
p3589
tp3590
Rp3591
tp3592
a(VCTTTGGATTGGGACCTAGCA
p3593
g2
(g6
S'\x8b\xdf|9\x9f9\xc4?'
p3594
tp3595
Rp3596
tp3597
a(VAGATCTGTACCTGGTGCACC
p3598
g2
(g6
S'\xc1^c\xc2(\xfb\xc3?'
p3599
tp3600
Rp3601
tp3602
a(VGTGTTATAGAACCAGGGTTT
p3603
g2
(g6
S'-\x19\xeb\x0en\xda\xa1?'
p3604
tp3605
Rp3606
tp3607
a(VAGTGAACAGGACTCTGAGCC
p3608
g2
(g6
S'\xae\xe0&\xbf\x1f`\xbb?'
p3609
tp3610
Rp3611
tp3612
a(VGGTGGGTGCTCTGGTAAGGC
p3613
g2
(g6
S'\xbeM\x7f\xf6#\xc5\xbc?'
p3614
tp3615
Rp3616
tp3617
a(VTTGAAGGTTCTGAACCGCAA
p3618
g2
(g6
S'\x82a\xaffSd\xbc?'
p3619
tp3620
Rp3621
tp3622
a(VAACGCACCTCCTTCTGTTTG
p3623
g2
(g6
S'e\xcb\xea\x04\xd1\xe6\xba?'
p3624
tp3625
Rp3626
tp3627
a(VCCCCAACTTCCCCACCTGAA
p3628
g2
(g6
S"D'\xd7V\xe4>\xba?"
p3629
tp3630
Rp3631
tp3632
a(VAGCGGTTGGTCGTACTGTTT
p3633
g2
(g6
S'ak\xa2\x0e\xac\\\x8c?'
p3634
tp3635
Rp3636
tp3637
a(VCAAAGAGAACACTGGAACTA
p3638
g2
(g6
S'\xa3HaX\xaa\xfd\xba?'
p3639
tp3640
Rp3641
tp3642
a(VCAGGAGGACATCCTGGAAAA
p3643
g2
(g6
S'\xda\xdbQ\x8fy\x8c\xab?'
p3644
tp3645
Rp3646
tp3647
a(VGGACATGTGTTAAAGGCTGC
p3648
g2
(g6
S'L-\xd5\xb1\xbc>\xaf?'
p3649
tp3650
Rp3651
tp3652
a(VCTCGAGGAGAGGAGCAGCAG
p3653
g2
(g6
S'\x8c\x9d\xa4\x84Vc\xd8?'
p3654
tp3655
Rp3656
tp3657
a(VGTGCTGCTAGTTGGGGGCTG
p3658
g2
(g6
S'`K]l9\x9b\xba?'
p3659
tp3660
Rp3661
tp3662
a(VGCTGTCAGCTGCAAGCGTTC
p3663
g2
(g6
S'\xaaw\x07d\xee;\xd1?'
p3664
tp3665
Rp3666
tp3667
a(VCAGTGGCTATGTGCACCAGC
p3668
g2
(g6
S'\xc4#\xec9\xbb\xa5\xd3?'
p3669
tp3670
Rp3671
tp3672
a(VTAGCATCTCGCAAGGTAGCA
p3673
g2
(g6
S'\xcd\xb1\xbc\xab\x1e0\xc0?'
p3674
tp3675
Rp3676
tp3677
a(VTCCAAAGATTCGGTTACAAA
p3678
g2
(g6
S'\xd5jO\x96Hl\xd1?'
p3679
tp3680
Rp3681
tp3682
a(VCTCTCACTTCGAGGGTCCGC
p3683
g2
(g6
S'Ce\x96\x19C\xf4\x9e?'
p3684
tp3685
Rp3686
tp3687
a(VGAGGCACAATAGGAGCAAGC
p3688
g2
(g6
S'%\x04\x85#C,\xc2?'
p3689
tp3690
Rp3691
tp3692
a(VAATCCCACATGAGAAACATA
p3693
g2
(g6
S'\xe6L;~m\x12\xca?'
p3694
tp3695
Rp3696
tp3697
a(VCTACCCGCCACCTGCAACAG
p3698
g2
(g6
S'\x13\xae\xfe\n\xc4+\xdc?'
p3699
tp3700
Rp3701
tp3702
a(VAGGCTGGCTGGAGTAGCTGG
p3703
g2
(g6
S'lJ\xf1r\x8an\xb5?'
p3704
tp3705
Rp3706
tp3707
a(VGTCAGGTCTCCAGGATTCAG
p3708
g2
(g6
S'd\x8aAy\x82\xf1\xd4?'
p3709
tp3710
Rp3711
tp3712
a(VCGATCTCCCGCAACTTTGCA
p3713
g2
(g6
S'\xad\xa9@\xee\xa1\xeb\xdd?'
p3714
tp3715
Rp3716
tp3717
a(VTTGCCTGGAGCTGTTGGCGA
p3718
g2
(g6
S'LH\x1d}\xc9\x0f\xc4?'
p3719
tp3720
Rp3721
tp3722
a(VCTGCTGGTGCACATAGCCAC
p3723
g2
(g6
S'\xa1\x87QE.\x8e\xa9?'
p3724
tp3725
Rp3726
tp3727
a(VCATGAACATGGCCAGCTTCT
p3728
g2
(g6
S'\x81\xf5n\xe2\x9a\xf1\xb9?'
p3729
tp3730
Rp3731
tp3732
a(VAAGGCTGGCTGGAGTAGCTG
p3733
g2
(g6
S'\xcb\xf0\x07R\x15\x92\xb7?'
p3734
tp3735
Rp3736
tp3737
a(VGATCATCACCAAGTACTTAT
p3738
g2
(g6
S'\xfb\xe7\xf2\xb1~\x1d\xd6?'
p3739
tp3740
Rp3741
tp3742
a(VACAGGCGGAGATTGAGGCTG
p3743
g2
(g6
S'>\r\xe0y\x1e\xe6\xc8?'
p3744
tp3745
Rp3746
tp3747
a(VCAGGTAGGATGGCTGTTGAA
p3748
g2
(g6
S'\x89\x95>e\x16\xd0\xe0?'
p3749
tp3750
Rp3751
tp3752
a(VGTGAGGTACCTAAGAATGTC
p3753
g2
(g6
S'\xd3;\xa0bX"\xbd?'
p3754
tp3755
Rp3756
tp3757
a(VTGCCTGTGATGCGGGCTGCC
p3758
g2
(g6
S'\xbdf33\xa5\x88\x9d?'
p3759
tp3760
Rp3761
tp3762
a(VTAAGGCTGGCTGGAGTAGCT
p3763
g2
(g6
S'/<\xdb\x15\x8d\xc4\x92?'
p3764
tp3765
Rp3766
tp3767
a(VCAGGCGGCTCCTCATCTTCT
p3768
g2
(g6
S'\xe9\x81\xbf\xfa\xa0\xb0\x85?'
p3769
tp3770
Rp3771
tp3772
a(VCTGCATGAGGCGCTGCGCCT
p3773
g2
(g6
S'\xf1~\xeea\xb5M\xa7?'
p3774
tp3775
Rp3776
tp3777
a(VTGGGGCACCATGATCCCGAT
p3778
g2
(g6
S'>tX\x19A.\xce?'
p3779
tp3780
Rp3781
tp3782
a(VCGTCCAAATATGTTGGTACT
p3783
g2
(g6
S'\xfc\x13\x18\x8f\xabA\xb4?'
p3784
tp3785
Rp3786
tp3787
a(VTGGTGTCATTGCTATGTGAA
p3788
g2
(g6
S'\x9c\x9f@\xaa\xf1\xea\xb1?'
p3789
tp3790
Rp3791
tp3792
a(VCGCTGTCCTTGGGGCACCGC
p3793
g2
(g6
S'A\xccS\x8d\xc6\xf0\xaa?'
p3794
tp3795
Rp3796
tp3797
a(VGGAGAGGGAGGCCGGGGACC
p3798
g2
(g6
S'\x1d}\xea]^\xae\x85?'
p3799
tp3800
Rp3801
tp3802
a(VAGTAGGATTGGTAGAAGGGT
p3803
g2
(g6
S'\xb4"\x90irS\xc3?'
p3804
tp3805
Rp3806
tp3807
a(VGACCATGCGCCAGTCTTCCT
p3808
g2
(g6
S'#\xe7\x8d+\xdfG\xaa?'
p3809
tp3810
Rp3811
tp3812
a(VGTCCCTTCAATCTTCTCCTT
p3813
g2
(g6
S'\xd6\xf4\xef\xe6\xe8r\xbc?'
p3814
tp3815
Rp3816
tp3817
a(VCAGGTAATAGGCGCGGGGCC
p3818
g2
(g6
S'\x7f\xe0\tA7\xc9\x89?'
p3819
tp3820
Rp3821
tp3822
a(VACATGCCTCCTTCTTGAAGA
p3823
g2
(g6
S'\x98w`\xf6n0\xd9?'
p3824
tp3825
Rp3826
tp3827
a(VTGGTAGAAGGGTGGGTGCTC
p3828
g2
(g6
S';U\x9dY;\x1f\x84?'
p3829
tp3830
Rp3831
tp3832
a(VGCAGCAGCAGCAGATCCTGC
p3833
g2
(g6
S'[\x0fx\xc3*\xec\xe0?'
p3834
tp3835
Rp3836
tp3837
a(VTGGGCCGCTGTTGCAGGTGG
p3838
g2
(g6
S'S\x117?\xaf\x0c\xb6?'
p3839
tp3840
Rp3841
tp3842
a(VGTTGGCGAAGGCGCTGTCCT
p3843
g2
(g6
S'\xd8\x88\xc0\x8e\x88\xf4\xa1?'
p3844
tp3845
Rp3846
tp3847
a(VTACTCCTTATGTTTCTCATG
p3848
g2
(g6
S'Y\xcf\xd9\x9a^\xf6\xb1?'
p3849
tp3850
Rp3851
tp3852
a(VGTTGGTACTGGGCTGTGGCT
p3853
g2
(g6
S'\xdbA\\\xa1^\x1c\xcc?'
p3854
tp3855
Rp3856
tp3857
a(VCCAGGATTCAGAGGCACAAT
p3858
g2
(g6
S'\x85:hS\xceg\xd8?'
p3859
tp3860
Rp3861
tp3862
a(VGCCGTCAGCACCACTCTCTT
p3863
g2
(g6
S'(\x86\xd7:\xe0V\xb1?'
p3864
tp3865
Rp3866
tp3867
a(VCTGCAAACCGTAGGAAGAGC
p3868
g2
(g6
S'\x92\xa1\xf8k\x91\xb8\xb1?'
p3869
tp3870
Rp3871
tp3872
a(VTCTGCTGAAGCCCCTGGCGC
p3873
g2
(g6
S'\x8cH\xb9\xa0c\xac\xa7?'
p3874
tp3875
Rp3876
tp3877
a(VGGCTGGCTGGAGTAGCTGGG
p3878
g2
(g6
S'\xf9\x86\xe8.\x8e\x0c\xdd?'
p3879
tp3880
Rp3881
tp3882
a(VGCGTCCAAATATGTTGGTAC
p3883
g2
(g6
S'`=\x8b1\xf2\xaa\x95?'
p3884
tp3885
Rp3886
tp3887
a(VATTGAACTTACTGAGAAATC
p3888
g2
(g6
S'\xfa\x97\xe6N\x97b\xa4?'
p3889
tp3890
Rp3891
tp3892
a(VGAGGAGCATGGCCCACTCCG
p3893
g2
(g6
S".Rj'1\xa5\xd1?"
p3894
tp3895
Rp3896
tp3897
a(VTGTTGGTACTGGGCTGTGGC
p3898
g2
(g6
S'+\xde\xac\xe7\xc2M\xa3?'
p3899
tp3900
Rp3901
tp3902
a(VAGGATCTACAAGAGTAGGAT
p3903
g2
(g6
S'\x82W\xa5\xd6\xf6\xd4\xbc?'
p3904
tp3905
Rp3906
tp3907
a(VCGGGTAGGATCTACAAGAGT
p3908
g2
(g6
S'\xef-\xf1\xefO\xc3\xc1?'
p3909
tp3910
Rp3911
tp3912
a(VCTGGCTGCGTTTCTTGCCCT
p3913
g2
(g6
S'\x8a\xae\xc4i\xac\xf0\xab?'
p3914
tp3915
Rp3916
tp3917
a(VCCTAAGAATGTCAGGTCTCC
p3918
g2
(g6
S'/B\xbd\x88\xd2\xb8\x8d?'
p3919
tp3920
Rp3921
tp3922
a(VCATGACTCCAATGAGTGCCC
p3923
g2
(g6
S'\xf9\x89\xecK\x82,\xbe?'
p3924
tp3925
Rp3926
tp3927
a(VAAACATAAGGAGTATAGCCC
p3928
g2
(g6
S'9\xb0\x91.zJ\xb6?'
p3929
tp3930
Rp3931
tp3932
a(VGCCCCCCAAAACTGACAAAC
p3933
g2
(g6
S'\x17\xf5\xe1\n<\xb8\xaf?'
p3934
tp3935
Rp3936
tp3937
a(VGGAGTAGCTGGGGGGCACCA
p3938
g2
(g6
S'!4C)\xa8H\xda?'
p3939
tp3940
Rp3941
tp3942
a(VGAGTAGGATTGGTAGAAGGG
p3943
g2
(g6
S'O\x84\xc8zN@\xd4?'
p3944
tp3945
Rp3946
tp3947
a(VCTGCCACTCACACAGGACTA
p3948
g2
(g6
S"1='\xde}\x05\xd1?"
p3949
tp3950
Rp3951
tp3952
a(VACCCGCTCACTCTCACTTCG
p3953
g2
(g6
S'p\xeer\xbb\xde\x90\xc0?'
p3954
tp3955
Rp3956
tp3957
a(VCTCTAGAGCGCTCTGGTGTA
p3958
g2
(g6
S'0\x80\xf0\xa1DK\x9c?'
p3959
tp3960
Rp3961
tp3962
a(VGTCAGTGAACCAAGTGTTAA
p3963
g2
(g6
S'\xd0\x03\x9e\x02\x00\xca\xaa?'
p3964
tp3965
Rp3966
tp3967
a(VAGAGCTGTTGTTGAAGTTGC
p3968
g2
(g6
S'\x93\n\xb1\x9a\xb1_\xb8?'
p3969
tp3970
Rp3971
tp3972
a(VCAGGCACTACTCACATTGTT
p3973
g2
(g6
S'u\xb9&|m8\xa1?'
p3974
tp3975
Rp3976
tp3977
a(VCAAGAGTAGGATTGGTAGAA
p3978
g2
(g6
S'pSi\xaf1t\xbe?'
p3979
tp3980
Rp3981
tp3982
a(VTCGAGGGTGTGCTGCTAGTT
p3983
g2
(g6
S'x\xac\xda\xb4\xa0\x97\x84?'
p3984
tp3985
Rp3986
tp3987
a(VGTGCCCTCAGCACCGGCCCC
p3988
g2
(g6
S'\xd7\xa0FYs\x0b\x9b?'
p3989
tp3990
Rp3991
tp3992
a(VGAACGCACCTCCTTCTGTTT
p3993
g2
(g6
S'\xb1\x7f\xedL\xe0W\xa3?'
p3994
tp3995
Rp3996
tp3997
a(VCTTCTTGCGTTCCTCAGTAC
p3998
g2
(g6
S'\xdc\xcf\xa8G\xbai\xbe?'
p3999
tp4000
Rp4001
tp4002
a(VTGCTGAGCGTGCTCATCAAT
p4003
g2
(g6
S'\x0f\xbb\x8c\xeebr\xd3?'
p4004
tp4005
Rp4006
tp4007
a(VTGGCTGAATACTACCGGCCA
p4008
g2
(g6
S'\x0c\x07\xc32\x96\x86\xd1?'
p4009
tp4010
Rp4011
tp4012
a(VCCTGTTGCTGCTGTTGCTGC
p4013
g2
(g6
S'\xf1\x16\xf4Pn\xea\xaf?'
p4014
tp4015
Rp4016
tp4017
a(VTGATCTGCTCCAGAACATTC
p4018
g2
(g6
S'r\x15`_\xb8!\xcf?'
p4019
tp4020
Rp4021
tp4022
a(VCTCCATCCACGATGCGGTTC
p4023
g2
(g6
S'\x02\xc0S\xf6\xcdeq?'
p4024
tp4025
Rp4026
tp4027
a(VGGAGTCATGGTACTTATCAT
p4028
g2
(g6
S'\xaf\xe2x1\xd9g\xe1?'
p4029
tp4030
Rp4031
tp4032
a(VACAAGAGTAGGATTGGTAGA
p4033
g2
(g6
S'\xae\xc2\xc6\xf27L\xd4?'
p4034
tp4035
Rp4036
tp4037
a(VGCCATTTAAAGAACAAATTT
p4038
g2
(g6
S'`\x12\xb0\x1b\x8b\xad\x97?'
p4039
tp4040
Rp4041
tp4042
a(VTAGTGCCAAACCAAGGCACT
p4043
g2
(g6
S't0\xdad\x06\x8a\xa5?'
p4044
tp4045
Rp4046
tp4047
a(VTGGAGTCATGGTACTTATCA
p4048
g2
(g6
S'\xa1\xd4\xc1n\x96\x9a\x94?'
p4049
tp4050
Rp4051
tp4052
a(VCACTGGGCCGCTGTTGCAGG
p4053
g2
(g6
S'G\x96C\xc0^\xb7\xa8?'
p4054
tp4055
Rp4056
tp4057
a(VTGGGACTGGGGCTGGGGTTG
p4058
g2
(g6
S'\xa4\xf5\x99\xae\x85+P?'
p4059
tp4060
Rp4061
tp4062
a(VTTCCACCCAGTTCCAGCGCC
p4063
g2
(g6
S'_\xbf\x1bc\x0bg\xa4?'
p4064
tp4065
Rp4066
tp4067
a(VGGGGAATAGTACCTGGGGGA
p4068
g2
(g6
S'\xa7$ cD[\x9b?'
p4069
tp4070
Rp4071
tp4072
a(VAGTCCAGGGACATGTGTTAA
p4073
g2
(g6
S"y'\xb3\x02\xc2\xd5\x95?"
p4074
tp4075
Rp4076
tp4077
a(VGCCCCTGAAGCGGCCGCGGC
p4078
g2
(g6
S'\x15yi\xf5\x9b\xaa\x83?'
p4079
tp4080
Rp4081
tp4082
a(VATGACTCCAATGAGTGCCCA
p4083
g2
(g6
S'H?\xf1\xceg\xc1\xdf?'
p4084
tp4085
Rp4086
tp4087
a(VTGGCAGTGGCTCCAGGTAAT
p4088
g2
(g6
S'\xfb"\xf2t\xe6\xd2\x99?'
p4089
tp4090
Rp4091
tp4092
a(VTCCCCTCAGGTGGGGAGGAT
p4093
g2
(g6
S'k`{\xcbtf\xb1?'
p4094
tp4095
Rp4096
tp4097
a(VCATCAAAGGGAGAGGGAGGC
p4098
g2
(g6
S's\x1f\xdcD\xfd\x93\x8f?'
p4099
tp4100
Rp4101
tp4102
a(VGCAGCAACAGCAGCAACAGG
p4103
g2
(g6
S'\xd9]3\x08\x92x\xe9?'
p4104
tp4105
Rp4106
tp4107
a(VTAGTTCCAGTGTTCTCTTTG
p4108
g2
(g6
S'\x85\x85N`\x1e\xd8\xb5?'
p4109
tp4110
Rp4111
tp4112
a(VAGGTAATAGGCGCGGGGCCG
p4113
g2
(g6
S'r$#\xa9}!\xbc?'
p4114
tp4115
Rp4116
tp4117
a(VGCTGCTGCTGCTGCCGGATG
p4118
g2
(g6
S'M"\x02\xdb\xaf\xa5\xa6?'
p4119
tp4120
Rp4121
tp4122
a(VGTTCTATGCCCTCAGGATCC
p4123
g2
(g6
S'\xf7\xce\x98\xe4\xa8%\x87?'
p4124
tp4125
Rp4126
tp4127
a(VGCCCTTGCCCCATGATGTAG
p4128
g2
(g6
S'\xb1\x0e\xddrIc\xca?'
p4129
tp4130
Rp4131
tp4132
a(VGCTGGCCATGTTCATGTTTC
p4133
g2
(g6
S'\xb4\xab\xacG\xc3\xa4\xb4?'
p4134
tp4135
Rp4136
tp4137
a(VTTGGCGAAGGCGCTGTCCTT
p4138
g2
(g6
S'\xcd?g\xc3{\xbd\x90?'
p4139
tp4140
Rp4141
tp4142
a(VAGCAGCAGCAGTACCACATC
p4143
g2
(g6
S'\x7fS\xff\xf0X\x8b\xb8?'
p4144
tp4145
Rp4146
tp4147
a(VCCAGAAGGATAACTTCTGGC
p4148
g2
(g6
S'\x0c?\x7ft\xc6$\xd7?'
p4149
tp4150
Rp4151
tp4152
a(VTTTCTCCCTTTAGCAGAGTC
p4153
g2
(g6
S'\xf9K\xf8\x96S1\xb1?'
p4154
tp4155
Rp4156
tp4157
a(VCAGCCCAGTACCAACATATT
p4158
g2
(g6
S'3\xd0\xdd\xf7m]\xbb?'
p4159
tp4160
Rp4161
tp4162
a(VCCAGCAGCAACAGCAGCAAC
p4163
g2
(g6
S'<;\x8dr8\x0c\xc8?'
p4164
tp4165
Rp4166
tp4167
a(VTCCAGGGCTCTCAGAATCTA
p4168
g2
(g6
S'\xae:\xb7x\x94$\xb7?'
p4169
tp4170
Rp4171
tp4172
a(VTGCTGCTGCTGCTGCTGCTC
p4173
g2
(g6
S'\xc1\xf4\xdc\x93\x9e!\x92?'
p4174
tp4175
Rp4176
tp4177
a(VCGCTCGGCAGTGTTTGCTCC
p4178
g2
(g6
S'%\x08\\\xf9Z\x07\x91?'
p4179
tp4180
Rp4181
tp4182
a(VAGCCCCCGGTTTGTCAGTTT
p4183
g2
(g6
S'\x98\x1f\x01\xa1\xcapi?'
p4184
tp4185
Rp4186
tp4187
a(VACAAATTTGGGGAGCTCTTC
p4188
g2
(g6
S"W*\x08\x1b'P\xa4?"
p4189
tp4190
Rp4191
tp4192
a(VCAGTTTCTGCTGTCCCTTTG
p4193
g2
(g6
S'\x1dT;\xf3\r\xad\xc4?'
p4194
tp4195
Rp4196
tp4197
a(VAGAAGGGCTGCTGGCTCAAT
p4198
g2
(g6
S'\xc2\xf6\x1c#\x9c\xc0\xa6?'
p4199
tp4200
Rp4201
tp4202
a(VCTGCTGCTGCTCAGGTAGGA
p4203
g2
(g6
S'k\x82E\xd1E\xfb\xce?'
p4204
tp4205
Rp4206
tp4207
a(VGGAGGTGAAGCCCCCACCCA
p4208
g2
(g6
S'\x10@\xf8\xbd>T\xa6?'
p4209
tp4210
Rp4211
tp4212
a(VCCTGGGCACTACTCAACACT
p4213
g2
(g6
S'\xb5\xa7\xe9U\x92\xec\xcd?'
p4214
tp4215
Rp4216
tp4217
a(VATCACGTTCTTTGCGTGAAG
p4218
g2
(g6
S'\x8f|#\x8f\xe7\xc0\xcc?'
p4219
tp4220
Rp4221
tp4222
a(VCCAGCAGCCCTTCTTATCGC
p4223
g2
(g6
S'\xd7\x96b\x90\xb9\x87\xc1?'
p4224
tp4225
Rp4226
tp4227
a(VGGTGCTGAGGGCACATAAGC
p4228
g2
(g6
S'\xf5\xb4\x8em\xc3\xaf\xc4?'
p4229
tp4230
Rp4231
tp4232
a(VTCAGTAGCGTCCAAATATGT
p4233
g2
(g6
S'a\x93X\xf95\x17\xd0?'
p4234
tp4235
Rp4236
tp4237
a(VCTGGGCAAGATGGCGGCCTT
p4238
g2
(g6
S'\xed\x04O\xaf\x01\x02\x83?'
p4239
tp4240
Rp4241
tp4242
a(VGCTACCTGGGGCTGGGACTG
p4243
g2
(g6
S'/\xa7\xc2\xa7R\x16\x9a?'
p4244
tp4245
Rp4246
tp4247
a(VCGAACGCACCTCCTTCTGTT
p4248
g2
(g6
S'L\x83\xf1\xbf\xd4P\xb3?'
p4249
tp4250
Rp4251
tp4252
a(VAGTGCCCAGGGCGTCCAGGC
p4253
g2
(g6
S'\x08\xe3\x05\xe3p~\xab?'
p4254
tp4255
Rp4256
tp4257
a(VGAAGGGTGGGTGCTCTGGTA
p4258
g2
(g6
S'H\x83P\xe89En?'
p4259
tp4260
Rp4261
tp4262
a(VGGTGCTCTGGTAAGGCTGGC
p4263
g2
(g6
S'B\xae\x0c^\x7f\x88\xb1?'
p4264
tp4265
Rp4266
tp4267
a(VGTCCCCTCAGGTGGGGAGGA
p4268
g2
(g6
S'\xda\x92\x80\x91\xca&\x94?'
p4269
tp4270
Rp4271
tp4272
a(VCTCAAGGCTGTGTTTGTACT
p4273
g2
(g6
S'P\xf6\x109\xef\x92\xa7?'
p4274
tp4275
Rp4276
tp4277
a(VCTGTTGAACGGACGCCTGCC
p4278
g2
(g6
S'z\x94\xfb1n\xe9\xa6?'
p4279
tp4280
Rp4281
tp4282
a(VAATGAGTGCCCAGGGCGTCC
p4283
g2
(g6
S'\xae\xc5A\x1e\xce7\xb9?'
p4284
tp4285
Rp4286
tp4287
a(VTATTCTAGATTGTGAATAAT
p4288
g2
(g6
S'c\xa6\xa8\x8b\xf8t\xab?'
p4289
tp4290
Rp4291
tp4292
a(VGTCCATAGGTGGGGGCCTGC
p4293
g2
(g6
S'\xc82\x1biKK\x90?'
p4294
tp4295
Rp4296
tp4297
a(VAGGCTTGGTCTTGCTGCTGC
p4298
g2
(g6
S'Av\xb6\xfe\x98\x01\x87?'
p4299
tp4300
Rp4301
tp4302
a(VTGGCCCACTCCGTGGTCTGC
p4303
g2
(g6
S'\x81\xca\xe4\x133t\x8c?'
p4304
tp4305
Rp4306
tp4307
a(VCTGCAGGTAGTGGCTGGTTC
p4308
g2
(g6
S'\x9a\x03\xf0\x8e\rV\x9a?'
p4309
tp4310
Rp4311
tp4312
a(VGTCCAGCAGCTACCTGGGGC
p4313
g2
(g6
S'\xf5\xc9f\x1bs/\x80?'
p4314
tp4315
Rp4316
tp4317
a(VGTCGAGGGTGTGCTGCTAGT
p4318
g2
(g6
S'U\xc4\x86\xfa\x9ft\xb4?'
p4319
tp4320
Rp4321
tp4322
a(VAGCAGCAGCAGCAGATCCTG
p4323
g2
(g6
S'\x9fD\x14+T\xcb\xc2?'
p4324
tp4325
Rp4326
tp4327
a(VAACTGTCCCCTCAGGTGGGG
p4328
g2
(g6
S'\xd0\x0b5\x12\xban\xc3?'
p4329
tp4330
Rp4331
tp4332
a(VGCCTCATGCATAAGCTGCTT
p4333
g2
(g6
S'\x03\xa6\x18\x8fn^\xc2?'
p4334
tp4335
Rp4336
tp4337
a(VGCTGCGCAGCATCTGCCAAC
p4338
g2
(g6
S'\xb9q\xfdN\xa2\xe4\xdd?'
p4339
tp4340
Rp4341
tp4342
a(VATGGGGCAAGGGCCCTATCG
p4343
g2
(g6
S'&\x88\xed\x00\xe5u\xa5?'
p4344
tp4345
Rp4346
tp4347
a(VGAAAACCTCGATTGTGGCCT
p4348
g2
(g6
S'\xd6\xb4\xa9\xbf\x00p\xc4?'
p4349
tp4350
Rp4351
tp4352
a(VACAAAGCTGTAGCGGTTAGC
p4353
g2
(g6
S'qz\x98o\xddJ\xbc?'
p4354
tp4355
Rp4356
tp4357
a(VCCCAGTGTTGAGTAGTGCCC
p4358
g2
(g6
S'\xb6!\xa3\\J\xb8\xca?'
p4359
tp4360
Rp4361
tp4362
a(VGAAGCCCCTGGCGCTGGAAC
p4363
g2
(g6
S'r\x80\xaa\x1b9\x1c\x95?'
p4364
tp4365
Rp4366
tp4367
a(VCATCACAGGCACTGTGTATT
p4368
g2
(g6
S'.\t\x85E\x9b\x9c\x7f?'
p4369
tp4370
Rp4371
tp4372
a(VTTTGTTCTTTAAATGGCTAC
p4373
g2
(g6
S'\xfa\xfb_\x8a\x7f\x93\x9a?'
p4374
tp4375
Rp4376
tp4377
a(VCCAGATGGCACAGGTCTTTG
p4378
g2
(g6
S'\xd5\x0c\x8dMI[\xb8?'
p4379
tp4380
Rp4381
tp4382
a(VCCACCCAGTTCCAGCGCCAG
p4383
g2
(g6
S'FC\x122\x9a\xd9\xc7?'
p4384
tp4385
Rp4386
tp4387
a(VTCCACCCAGTTCCAGCGCCA
p4388
g2
(g6
S'\xb3\x1e\xc6\xbd\\\x98\xd2?'
p4389
tp4390
Rp4391
tp4392
a(VCTGTGCCTGCAGAAGGAGTT
p4393
g2
(g6
S'\xd3\xa3\xf5,\x12W\xa5?'
p4394
tp4395
Rp4396
tp4397
a(VGCTGCTGCTGCTGCTCAGGT
p4398
g2
(g6
S'\x84\x9d\xa9\xaa\xac\x9a\xd7?'
p4399
tp4400
Rp4401
tp4402
a(VTGGACGCCCTGGGCACTCAT
p4403
g2
(g6
S'\xd4$d_32\xc4?'
p4404
tp4405
Rp4406
tp4407
a(VCCACTCTCTTGGGGCTGGTT
p4408
g2
(g6
S'\xcb)\xcc>9Q\x95?'
p4409
tp4410
Rp4411
tp4412
a(VCCTGGAGACCTGACATTCTT
p4413
g2
(g6
S'\xe1\x8e:\xb1\xbch\xc5?'
p4414
tp4415
Rp4416
tp4417
a(VCTTCAGCCTCCTTGTGCTCT
p4418
g2
(g6
S'\xcb\x06\x97c\xb9r\x88?'
p4419
tp4420
Rp4421
tp4422
a(VCCGGGTCGGAGCGGCCCTTA
p4423
g2
(g6
S'\x99\xdf\xea\xb2\xf8Jq?'
p4424
tp4425
Rp4426
tp4427
a(VGCGCATAAAGCGCATTCTCC
p4428
g2
(g6
S'\xba`\xefL\x08 \xb4?'
p4429
tp4430
Rp4431
tp4432
a(VCTCTTCCTTCTTACTGAAAA
p4433
g2
(g6
S'N\xf2\x9fE!\x8f\x91?'
p4434
tp4435
Rp4436
tp4437
a(VCCTCATCGACTTTGCCATTC
p4438
g2
(g6
S'\xf4\xc8\x7f~h\xb1\x8b?'
p4439
tp4440
Rp4441
tp4442
a(VCAGCTACCTGGGGCTGGGAC
p4443
g2
(g6
S']\xbar\x8b3e\x8b?'
p4444
tp4445
Rp4446
tp4447
a(VAGCCATTTAAAGAACAAATT
p4448
g2
(g6
S'\x05\x02\x86\xad%Y\xa4?'
p4449
tp4450
Rp4451
tp4452
a(VGGATGTCCTCCTGCAGTTTC
p4453
g2
(g6
S'\x119}=_\xb3\xa8?'
p4454
tp4455
Rp4456
tp4457
a(VCTCTGTGGAGACAGCCAGTC
p4458
g2
(g6
S'\xcf~\x8b\xebk\x9f\xa4?'
p4459
tp4460
Rp4461
tp4462
a(VTTCACCTCCTTCTCGACATC
p4463
g2
(g6
S'\xdd\x1b\xae\x9bsl\xa4?'
p4464
tp4465
Rp4466
tp4467
a(VGACGCCTGCCTGGACGCCCT
p4468
g2
(g6
S'X\xab\t\xb1\x19\xb1\xb4?'
p4469
tp4470
Rp4471
tp4472
a(VGCGCTTTATGCGCTGCCGCT
p4473
g2
(g6
S'\xd2\xd3\xf9P\x9f\xed\xc7?'
p4474
tp4475
Rp4476
tp4477
a(VACCGGCCCCTGAAGCGGCCG
p4478
g2
(g6
S'\xd9l\xcb\xd1\xfaS\xdd?'
p4479
tp4480
Rp4481
tp4482
a(VAACAGACAGCAGCTTTGGTC
p4483
g2
(g6
S'7\x88\x80\x8a}\xde\xb1?'
p4484
tp4485
Rp4486
tp4487
a(VGCTGGGTCTGCTGAAGCCCC
p4488
g2
(g6
S'\x93\xca#\x9e=\xae\xbe?'
p4489
tp4490
Rp4491
tp4492
a(VTACTCAACACTGGGTCTTGC
p4493
g2
(g6
S':d\x05\xea\x8d\x8d\xb1?'
p4494
tp4495
Rp4496
tp4497
a(VGCCCCAGCCGCGGCCGCTTC
p4498
g2
(g6
S'\xc2\xaa\xd5\xb2\x10x[?'
p4499
tp4500
Rp4501
tp4502
a(VTCCAGCAGCTACCTGGGGCT
p4503
g2
(g6
S'\x11\x1c\xd9\x8d%I\xa0?'
p4504
tp4505
Rp4506
tp4507
a(VGTAAGGCTGGCTGGAGTAGC
p4508
g2
(g6
S':\x93\x10\x8eT=\xa1?'
p4509
tp4510
Rp4511
tp4512
a(VAAGCCCCTGGCGCTGGAACT
p4513
g2
(g6
S'`H\xec\xb2\x16\xa1\xa4?'
p4514
tp4515
Rp4516
tp4517
a(VGCAGCAACAGACAGCAGCTT
p4518
g2
(g6
S'e\x94\xab{\x0b\xbb\xd6?'
p4519
tp4520
Rp4521
tp4522
a(VGCAGGCGGCTCCTCATCTTC
p4523
g2
(g6
S'\x1el`\x94h\x15\x9c?'
p4524
tp4525
Rp4526
tp4527
a(VACCCTGTCTCTGCTGACTGT
p4528
g2
(g6
S'Y\xd3s\r^\xb4\xc5?'
p4529
tp4530
Rp4531
tp4532
a(VAGCTACCTGGGGCTGGGACT
p4533
g2
(g6
S'Cg\xe8\x8b\xfc{\x8a?'
p4534
tp4535
Rp4536
tp4537
a(VTGCAATAATGCTGCTGAAGT
p4538
g2
(g6
S'\xe5\xf9FS\xc1\xd1\x97?'
p4539
tp4540
Rp4541
tp4542
a(VCCTGCTAGAGCCTGAGAAAA
p4543
g2
(g6
S'\xd2H\xfdU}7\xa8?'
p4544
tp4545
Rp4546
tp4547
a(VAGGCGCGGGGCCGGGGCCTC
p4548
g2
(g6
S'\xa2\xf1y\x02\xb7\xa7A?'
p4549
tp4550
Rp4551
tp4552
a(VCCGGCCCCGCGCCTATTACC
p4553
g2
(g6
S'\x1c\x1f\xc8\xa22\xc3\xad?'
p4554
tp4555
Rp4556
tp4557
a(VCCCCAAATTTGTTCTTTAAA
p4558
g2
(g6
S'\xb5\xe2KC\xb5\n\xa9?'
p4559
tp4560
Rp4561
tp4562
a(VAGCCACTGGGCCGCTGTTGC
p4563
g2
(g6
S'U\x0ee\\\xfcc]?'
p4564
tp4565
Rp4566
tp4567
a(VCAGTGTTCTCTTTGAGGACA
p4568
g2
(g6
S"uG'\x94\x83\xae\xa5?"
p4569
tp4570
Rp4571
tp4572
a(VCTGCTGTCTGTTGCTGCTGC
p4573
g2
(g6
S'\xad\x13\xd4F.e\x88?'
p4574
tp4575
Rp4576
tp4577
a(VTCCCGAGGGGACCTTGCCTT
p4578
g2
(g6
S'\xec\x0e\xa8\x852W\x95?'
p4579
tp4580
Rp4581
tp4582
a(VCTCACCTCTGTCTTGGTAGC
p4583
g2
(g6
S'\xbcJ-J\xbf3\xac?'
p4584
tp4585
Rp4586
tp4587
a(VGCAGTTCATCTTCGACCTCA
p4588
g2
(g6
S'C\x08D_\xac5\xcd?'
p4589
tp4590
Rp4591
tp4592
a(VGGACGCCTGCCTGGACGCCC
p4593
g2
(g6
S'\xd6\x97\x98s\x98K\xa3?'
p4594
tp4595
Rp4596
tp4597
a(VTGCTGTCTGTTGCTGCTGCT
p4598
g2
(g6
S'\xf9\x13\x9a\xc6$\x93\xcb?'
p4599
tp4600
Rp4601
tp4602
a(VAATCCCAGTGCCTTACCCGC
p4603
g2
(g6
S'\xcaw\xd5u;*\xda?'
p4604
tp4605
Rp4606
tp4607
a(VGCAGGTCCGTGCAAAGTTGC
p4608
g2
(g6
S'5b\x9b\x91\x97\xce\xd3?'
p4609
tp4610
Rp4611
tp4612
a(VTGCGCTTTATGCGCTGCCGC
p4613
g2
(g6
S'\x15\x18x\x0fLE\x95?'
p4614
tp4615
Rp4616
tp4617
a(VCGCTGTTGCAGGTGGCGGGT
p4618
g2
(g6
S'\x1fn8@\xf1\xe2\x95?'
p4619
tp4620
Rp4621
tp4622
a(VGTAGGGGTCCGTACTCAGCA
p4623
g2
(g6
S'\xed\x89\xe8\xb6\xc8\x06\xdf?'
p4624
tp4625
Rp4626
tp4627
a(g1
g2
(g6
S'\x99\n\xec\x8f\x02\x94\xcf?'
p4628
tp4629
Rp4630
tp4631
a(g13
g2
(g6
S'\x9b\xdf\xd5\x17\xae\xb3\xb9?'
p4632
tp4633
Rp4634
tp4635
a(g18
g2
(g6
S'&\xc2\xee\x8a\xcc\x9b\xa6?'
p4636
tp4637
Rp4638
tp4639
a(g23
g2
(g6
S'g\xd6\x15\xdd\xc1b\xe3?'
p4640
tp4641
Rp4642
tp4643
a(g28
g2
(g6
S'\x9b\xcc;\xf8\xd08\xed?'
p4644
tp4645
Rp4646
tp4647
a(g33
g2
(g6
S'\xd2\xe5t)\x13V\xa6?'
p4648
tp4649
Rp4650
tp4651
a(g38
g2
(g6
S'\xbaTV\xe7\xd9\xeb\xc7?'
p4652
tp4653
Rp4654
tp4655
a(g43
g2
(g6
S'\xff\x94\xe84$Q\xb4?'
p4656
tp4657
Rp4658
tp4659
a(g48
g2
(g6
S'\xd6\x93)\x81\xf5\x01\x98?'
p4660
tp4661
Rp4662
tp4663
a(g53
g2
(g6
S'\xe9\x1d\xd4i\xd0\x8c\xe2?'
p4664
tp4665
Rp4666
tp4667
a(g58
g2
(g6
S'\xb9\xd0\xb3^\xaes\xce?'
p4668
tp4669
Rp4670
tp4671
a(g63
g2
(g6
S'\xb2\x8d\xbc\xcf\x98\x99\xd8?'
p4672
tp4673
Rp4674
tp4675
a(g68
g2
(g6
S'y^\xd1}\x9e\xce\xe1?'
p4676
tp4677
Rp4678
tp4679
a(g73
g2
(g6
S'\x96\x0c\xcdc7-\xd8?'
p4680
tp4681
Rp4682
tp4683
a(g78
g2
(g6
S'\x91\x1dj\xc7L\x03\xd2?'
p4684
tp4685
Rp4686
tp4687
a(g83
g2
(g6
S'\xfa\xab\x83`\xaeU\xe0?'
p4688
tp4689
Rp4690
tp4691
a(g88
g2
(g6
S'wS4P\xc5\xbf\xc3?'
p4692
tp4693
Rp4694
tp4695
a(g93
g2
(g6
S'\xaf\x14\ts\xa9\xb4\xd9?'
p4696
tp4697
Rp4698
tp4699
a(g98
g2
(g6
S'7;\x1a\xd3\x88C\xe1?'
p4700
tp4701
Rp4702
tp4703
a(g103
g2
(g6
S'\xbfx\xa6\x9a\xd0\x99\xcc?'
p4704
tp4705
Rp4706
tp4707
a(g108
g2
(g6
S'\x82`IJ^\xc3\xdb?'
p4708
tp4709
Rp4710
tp4711
a(g113
g2
(g6
S'\xfd\xb3\xbe\xff\x91\x14\xc3?'
p4712
tp4713
Rp4714
tp4715
a(g118
g2
(g6
S'\x8e\xa3y\xcd\x99W\xd4?'
p4716
tp4717
Rp4718
tp4719
a(g123
g2
(g6
S'\xccQ\xf4~\xab~\xe3?'
p4720
tp4721
Rp4722
tp4723
a(g128
g2
(g6
S'\xf7M\x1d\x88\x85\n\xbc?'
p4724
tp4725
Rp4726
tp4727
a(g133
g2
(g6
S'E7\x86\xf6m\xe5\xdb?'
p4728
tp4729
Rp4730
tp4731
a(g138
g2
(g6
S'\x8c\x80\xd0\x9b\x06L\xe4?'
p4732
tp4733
Rp4734
tp4735
a(g143
g2
(g6
S'\r\xe2\xe7\xe5\xceq\xd4?'
p4736
tp4737
Rp4738
tp4739
a(g148
g2
(g6
S'.d\x8aF2|\xd1?'
p4740
tp4741
Rp4742
tp4743
a(g153
g2
(g6
S'\x1d>\xd7a\xc6@\xc3?'
p4744
tp4745
Rp4746
tp4747
a(g158
g2
(g6
S'\xbb\x1bK%*\xbe\x8b?'
p4748
tp4749
Rp4750
tp4751
a(g163
g2
(g6
S'\x14\xc5\x04e\xb5!\xc0?'
p4752
tp4753
Rp4754
tp4755
a(g168
g2
(g6
S'|\x89lx^\xd0\xd8?'
p4756
tp4757
Rp4758
tp4759
a(g173
g2
(g6
S'\xa7\xc7\xe4D#\x0e\xd3?'
p4760
tp4761
Rp4762
tp4763
a(g178
g2
(g6
S'\xe1t7\xf4\xbbU\xb9?'
p4764
tp4765
Rp4766
tp4767
a(g183
g2
(g6
S'v-\x12\xf4\xc62\xb6?'
p4768
tp4769
Rp4770
tp4771
a(g188
g2
(g6
S'^d\xd2Dw\xc7\x9e?'
p4772
tp4773
Rp4774
tp4775
a(g193
g2
(g6
S'j\x7f#^\xf7\xc6\xd0?'
p4776
tp4777
Rp4778
tp4779
a(g198
g2
(g6
S"K'|0\xd5\xde\xdd?"
p4780
tp4781
Rp4782
tp4783
a(g203
g2
(g6
S'|9\xf3xH\xbb\xd1?'
p4784
tp4785
Rp4786
tp4787
a(g208
g2
(g6
S'\x8c\\?\x16\x05N\xd6?'
p4788
tp4789
Rp4790
tp4791
a(g213
g2
(g6
S'A\xa2\x8fM\x80\x8e\xc9?'
p4792
tp4793
Rp4794
tp4795
a(g218
g2
(g6
S'\xcd\xcb\xd8\x05\xc0\x8e\xd0?'
p4796
tp4797
Rp4798
tp4799
a(g223
g2
(g6
S'\x8fS\xe6y\x7f\xa2\x83?'
p4800
tp4801
Rp4802
tp4803
a(g228
g2
(g6
S'\xa05`\x0c\xbcE\xc7?'
p4804
tp4805
Rp4806
tp4807
a(g233
g2
(g6
S'?\x08\xad\xf9\x84\xfb\xa6?'
p4808
tp4809
Rp4810
tp4811
a(g238
g2
(g6
S'\xc3\x9aXM\xc8\xd8\xe8?'
p4812
tp4813
Rp4814
tp4815
a(g243
g2
(g6
S'\xc061\x10Cl\xc2?'
p4816
tp4817
Rp4818
tp4819
a(g248
g2
(g6
S'J \x9f<\x9e\xe9\xce?'
p4820
tp4821
Rp4822
tp4823
a(g253
g2
(g6
S'\xa6d\xb0\x17G;\xa1?'
p4824
tp4825
Rp4826
tp4827
a(g258
g2
(g6
S'\x0eU\xfe\xa3\xd9\xb6\xae?'
p4828
tp4829
Rp4830
tp4831
a(g263
g2
(g6
S"\x86\x8075\xb4'\xd8?"
p4832
tp4833
Rp4834
tp4835
a(g268
g2
(g6
S'>;\x01\xc9K\x89\xda?'
p4836
tp4837
Rp4838
tp4839
a(g273
g2
(g6
S'^\rq(S\xb7\xe6?'
p4840
tp4841
Rp4842
tp4843
a(g278
g2
(g6
S'\xdd\xc2\x04\x7f\t&\xa8?'
p4844
tp4845
Rp4846
tp4847
a(g283
g2
(g6
S'\x01\xdc\x9e\xb3\x14\xef\xce?'
p4848
tp4849
Rp4850
tp4851
a(g288
g2
(g6
S'\x9d\xea\xb4aY\xd8\xc7?'
p4852
tp4853
Rp4854
tp4855
a(g293
g2
(g6
S'\xec\xa9+X\x10\xce\xdc?'
p4856
tp4857
Rp4858
tp4859
a(g298
g2
(g6
S'\xa8mQ\xd3\x1fK\xeb?'
p4860
tp4861
Rp4862
tp4863
a(g303
g2
(g6
S'\xfa\x92\xa4\xa3\xd0M\xe7?'
p4864
tp4865
Rp4866
tp4867
a(g308
g2
(g6
S'\x16g#\x0f\xf8\x87\xd5?'
p4868
tp4869
Rp4870
tp4871
a(g313
g2
(g6
S'\x16N\x14\x19\x04\x93\xd9?'
p4872
tp4873
Rp4874
tp4875
a(g318
g2
(g6
S'\xf0\x835\xc65+\xe5?'
p4876
tp4877
Rp4878
tp4879
a(g323
g2
(g6
S'\xbfm\xf4\xd1\xac\xc3\xd1?'
p4880
tp4881
Rp4882
tp4883
a(g328
g2
(g6
S'\xa4m\x85{(\xbb\xc5?'
p4884
tp4885
Rp4886
tp4887
a(g333
g2
(g6
S'7\x92H\xfe\x07(\xbb?'
p4888
tp4889
Rp4890
tp4891
a(g338
g2
(g6
S'\xfe]\xbb\x8e\x1a\x0e\xbb?'
p4892
tp4893
Rp4894
tp4895
a(g343
g2
(g6
S'g\x06\x8cV7\x9c\xdb?'
p4896
tp4897
Rp4898
tp4899
a(g348
g2
(g6
S'p\xbb\x05OwW\xb1?'
p4900
tp4901
Rp4902
tp4903
a(g353
g2
(g6
S'\x17\xd8\x05\xb1\xa3\xb9\xd5?'
p4904
tp4905
Rp4906
tp4907
a(g358
g2
(g6
S't\xb9\x1c\n\xfa\xc6\xd4?'
p4908
tp4909
Rp4910
tp4911
a(g363
g2
(g6
S'+\xcd\x85H\x88\x1d\xa1?'
p4912
tp4913
Rp4914
tp4915
a(g368
g2
(g6
S'\xbf\x9a\xe2\xf5\x89\x91\xc3?'
p4916
tp4917
Rp4918
tp4919
a(g373
g2
(g6
S'!J\x1e\xc9\x91\x00\xe0?'
p4920
tp4921
Rp4922
tp4923
a(g378
g2
(g6
S'\xfd\xb6\xbdc\xcc\xab\xd5?'
p4924
tp4925
Rp4926
tp4927
a(g383
g2
(g6
S'\xb0\x9a\xc8{\xbe\xae\xb4?'
p4928
tp4929
Rp4930
tp4931
a(g388
g2
(g6
S'\x0f\xaa\x81\xa4W\x1c\xc5?'
p4932
tp4933
Rp4934
tp4935
a(g393
g2
(g6
S'V\n|\xa3(\xa0\xe9?'
p4936
tp4937
Rp4938
tp4939
a(g398
g2
(g6
S'L\x08\xf0\xf2\x81\x18\xcf?'
p4940
tp4941
Rp4942
tp4943
a(g403
g2
(g6
S'\xdf\xfb\x83\x97\xcc\xb0\xc0?'
p4944
tp4945
Rp4946
tp4947
a(g408
g2
(g6
S'\x9e\xf5\x1c\x9db\xb1\xcc?'
p4948
tp4949
Rp4950
tp4951
a(g413
g2
(g6
S'\x1ePW\xf3\xf3\xe1\xe0?'
p4952
tp4953
Rp4954
tp4955
a(g418
g2
(g6
S'N\x11\x8c\xf5\xa0\xaf\xac?'
p4956
tp4957
Rp4958
tp4959
a(g423
g2
(g6
S'3\x17\x1bg\x91\xf5\x97?'
p4960
tp4961
Rp4962
tp4963
a(g428
g2
(g6
S'\xc5\xdc\xe3\xbcgs\xa1?'
p4964
tp4965
Rp4966
tp4967
a(g433
g2
(g6
S'\xc40\xaeX\xc6\xfd\xbe?'
p4968
tp4969
Rp4970
tp4971
a(g438
g2
(g6
S'\x86\xec\xf68W\xbd\xd2?'
p4972
tp4973
Rp4974
tp4975
a(g443
g2
(g6
S'\x8c9\xb4:\xccV\xea?'
p4976
tp4977
Rp4978
tp4979
a(g448
g2
(g6
S'\x07\x1d[l\xe6R\xcc?'
p4980
tp4981
Rp4982
tp4983
a(g453
g2
(g6
S'j\xa9\x7f\xba\xc8\x97\xc7?'
p4984
tp4985
Rp4986
tp4987
a(g458
g2
(g6
S'\xd4\xc4\x1c\xb3\xd5\xad\xa1?'
p4988
tp4989
Rp4990
tp4991
a(g463
g2
(g6
S'q\xd1\xeca\xffZ\xdf?'
p4992
tp4993
Rp4994
tp4995
a(g468
g2
(g6
S'\xea\x1d\xed\x06q\x88\xe3?'
p4996
tp4997
Rp4998
tp4999
a(g473
g2
(g6
S'\xcd\xb6TW\x9e\xcd\xe0?'
p5000
tp5001
Rp5002
tp5003
a(g478
g2
(g6
S'c^!U\x0fV\xe2?'
p5004
tp5005
Rp5006
tp5007
a(g483
g2
(g6
S'=H\xe2\xf4\x14*\xe2?'
p5008
tp5009
Rp5010
tp5011
a(g488
g2
(g6
S'-<g\xbfy\xe7\xb2?'
p5012
tp5013
Rp5014
tp5015
a(g493
g2
(g6
S'9\xb9\xa7\xf7\xc9\x9b\xc8?'
p5016
tp5017
Rp5018
tp5019
a(g498
g2
(g6
S'\xf1\xbe\x184nV\xcc?'
p5020
tp5021
Rp5022
tp5023
a(g503
g2
(g6
S'\x19\xa0\xe1\x8b\xfe\x89\xdf?'
p5024
tp5025
Rp5026
tp5027
a(g508
g2
(g6
S'\xc9\xc2m\xf3\x1a\xc9\xb6?'
p5028
tp5029
Rp5030
tp5031
a(g513
g2
(g6
S'_\xcbG,\x0b\xa1\xcb?'
p5032
tp5033
Rp5034
tp5035
a(g518
g2
(g6
S'\xc8\xe6\xb7\xa3\x90H\xa2?'
p5036
tp5037
Rp5038
tp5039
a(g523
g2
(g6
S'\xbe\xe3\xc5\xd6\xf4\x1f\x94?'
p5040
tp5041
Rp5042
tp5043
a(g528
g2
(g6
S'\xa2\xad\x150+\x9b\xd6?'
p5044
tp5045
Rp5046
tp5047
a(g533
g2
(g6
S'\xae\x97%\x88Z\x9d\xa9?'
p5048
tp5049
Rp5050
tp5051
a(g538
g2
(g6
S'\xd8\r\x18z}\xa3\xe2?'
p5052
tp5053
Rp5054
tp5055
a(g543
g2
(g6
S'\x1dj\x8d\xa1\x99\xb0\xb1?'
p5056
tp5057
Rp5058
tp5059
a(g548
g2
(g6
S'K\xc6\xdb\x91\x84\xd9\xb5?'
p5060
tp5061
Rp5062
tp5063
a(g553
g2
(g6
S'\x8e=/\xa0\r<\xc7?'
p5064
tp5065
Rp5066
tp5067
a(g558
g2
(g6
S'\xdb\x98\xe3\x84%\xd8\xe9?'
p5068
tp5069
Rp5070
tp5071
a(g563
g2
(g6
S'\xb2n\x05\x12\xe9~\xca?'
p5072
tp5073
Rp5074
tp5075
a(g568
g2
(g6
S'\xc5\x05!\xd2\xcf\x11\xc5?'
p5076
tp5077
Rp5078
tp5079
a(g573
g2
(g6
S'Ym\xe2\nF\x8a\xd9?'
p5080
tp5081
Rp5082
tp5083
a(g578
g2
(g6
S'\xb6\x96\x18\xb7\x10%\xc5?'
p5084
tp5085
Rp5086
tp5087
a(g583
g2
(g6
S'a&\x91J\x9f\xe0\xd4?'
p5088
tp5089
Rp5090
tp5091
a(g588
g2
(g6
S'\x99t\xe7\xcb\x03?\xde?'
p5092
tp5093
Rp5094
tp5095
a(g593
g2
(g6
S'OJ\x85\xd4\x94\xf4\xc0?'
p5096
tp5097
Rp5098
tp5099
a(g598
g2
(g6
S'm!#\xfb{\x84\xc5?'
p5100
tp5101
Rp5102
tp5103
a(g603
g2
(g6
S'\xe24L\x86F\xf4\xe7?'
p5104
tp5105
Rp5106
tp5107
a(g608
g2
(g6
S'*g\xf2DEY\xc1?'
p5108
tp5109
Rp5110
tp5111
a(g613
g2
(g6
S'w\x95\xff\xda\x0bV\xc5?'
p5112
tp5113
Rp5114
tp5115
a(g618
g2
(g6
S'\x0f\xd1\xd9\xe34-\xc2?'
p5116
tp5117
Rp5118
tp5119
a(g623
g2
(g6
S'49\xdd\xfb\x19\xa3\xe2?'
p5120
tp5121
Rp5122
tp5123
a(g628
g2
(g6
S'\xf7B\xce\xe9\x1c}\xba?'
p5124
tp5125
Rp5126
tp5127
a(g633
g2
(g6
S'\xe0\x9a\x8f\xf9\xed\xdc\xb2?'
p5128
tp5129
Rp5130
tp5131
a(g638
g2
(g6
S'\xde\xd6d-\x08\xfc\xdc?'
p5132
tp5133
Rp5134
tp5135
a(g643
g2
(g6
S'\x98\x85l\xdc?o\xd7?'
p5136
tp5137
Rp5138
tp5139
a(g648
g2
(g6
S'F\x81\xbf\x11=\x06\xd1?'
p5140
tp5141
Rp5142
tp5143
a(g653
g2
(g6
S'\xd8\xfe\xa5w\xb7s\xd9?'
p5144
tp5145
Rp5146
tp5147
a(g658
g2
(g6
S'e\xf6\xd2D:\xa4\xc7?'
p5148
tp5149
Rp5150
tp5151
a(g663
g2
(g6
S'P\x03\x8c\x82n\x9c\xb9?'
p5152
tp5153
Rp5154
tp5155
a(g668
g2
(g6
S'\x13+\x9e\xd8\x15\xc3\xbb?'
p5156
tp5157
Rp5158
tp5159
a(g673
g2
(g6
S'(\x1c\xd2\x8ck\x9a\\?'
p5160
tp5161
Rp5162
tp5163
a(g678
g2
(g6
S'\xf1\xe8-\xbb\xb3\xd8\xd6?'
p5164
tp5165
Rp5166
tp5167
a(g683
g2
(g6
S'F\x11p\r\x0e\xa4\xca?'
p5168
tp5169
Rp5170
tp5171
a(g688
g2
(g6
S'7\xb6F 8p\xd5?'
p5172
tp5173
Rp5174
tp5175
a(g693
g2
(g6
S'\x9e\xec\x82\x9bn\xd4\xc2?'
p5176
tp5177
Rp5178
tp5179
a(g698
g2
(g6
S'\xfe\xf7\xef\xe0xU\xb7?'
p5180
tp5181
Rp5182
tp5183
a(g703
g2
(g6
S'\x99\xc9\xc3\x84\xc9\xbb\xb0?'
p5184
tp5185
Rp5186
tp5187
a(g708
g2
(g6
S'\xdff@\xa95\xce\xc9?'
p5188
tp5189
Rp5190
tp5191
a(g713
g2
(g6
S'K#\x08\x85x\x8c\xb2?'
p5192
tp5193
Rp5194
tp5195
a(g718
g2
(g6
S'S(\xb2\xa6\x17$\xe5?'
p5196
tp5197
Rp5198
tp5199
a(g723
g2
(g6
S'\xf7\xa6\x7f\xcfc\x82\xde?'
p5200
tp5201
Rp5202
tp5203
a(g728
g2
(g6
S'\xa0\xce\x89\xfb\x97=\xb8?'
p5204
tp5205
Rp5206
tp5207
a(g733
g2
(g6
S'\xe7$\xd3"T\t\xaa?'
p5208
tp5209
Rp5210
tp5211
a(g738
g2
(g6
S'\x00\x87\x11A#x\xb3?'
p5212
tp5213
Rp5214
tp5215
a(g743
g2
(g6
S'/0!\xa2um\xd6?'
p5216
tp5217
Rp5218
tp5219
a(g748
g2
(g6
S'\xe4\xe1\xee\xc0\xc1]\xc0?'
p5220
tp5221
Rp5222
tp5223
a(g753
g2
(g6
S'\x11m\xc2\x1b\xa4\x10\xe4?'
p5224
tp5225
Rp5226
tp5227
a(g758
g2
(g6
S'\x0cB\xb3\xca\xd0\x01\xda?'
p5228
tp5229
Rp5230
tp5231
a(g763
g2
(g6
S'\xa1\x11\xbd\xa3\xfen\xdf?'
p5232
tp5233
Rp5234
tp5235
a(g768
g2
(g6
S'H\xc8\xfe\x81\x8b\xa8\xe7?'
p5236
tp5237
Rp5238
tp5239
a(g773
g2
(g6
S'a\xe2\xba"+\xb1\xe1?'
p5240
tp5241
Rp5242
tp5243
a(g778
g2
(g6
S'\x8c\x89-:\xe2\x1b\xdf?'
p5244
tp5245
Rp5246
tp5247
a(g783
g2
(g6
S'O*\xa5]\x08\x96\xcd?'
p5248
tp5249
Rp5250
tp5251
a(g788
g2
(g6
S'\x0c\xbcI\xc2t\x90\xc5?'
p5252
tp5253
Rp5254
tp5255
a(g793
g2
(g6
S'\x97\xfd\x01\xa9)\xd6\x9c?'
p5256
tp5257
Rp5258
tp5259
a(g798
g2
(g6
S"\x83'\x80\xa4\x80+\xe7?"
p5260
tp5261
Rp5262
tp5263
a(g803
g2
(g6
S'J\xd5\x8a\xf7bF\xe0?'
p5264
tp5265
Rp5266
tp5267
a(g808
g2
(g6
S'\xaa\x7f\xef\xba\xa7@\xb2?'
p5268
tp5269
Rp5270
tp5271
a(g813
g2
(g6
S'uS\x8b\x07\xe2\xdc\xaa?'
p5272
tp5273
Rp5274
tp5275
a(g818
g2
(g6
S'\xa8\x8a\x11\xd8\x88_\xce?'
p5276
tp5277
Rp5278
tp5279
a(g823
g2
(g6
S'\x16\xd4\x82\xda\x19\xed\xc7?'
p5280
tp5281
Rp5282
tp5283
a(g828
g2
(g6
S'\x02\x9d\xfd\x0ced\xd6?'
p5284
tp5285
Rp5286
tp5287
a(g833
g2
(g6
S'J\xc3\x9d\xc9\x06\xab\xcc?'
p5288
tp5289
Rp5290
tp5291
a(g838
g2
(g6
S'\x89N\xed\x11\x0c\x15\xd4?'
p5292
tp5293
Rp5294
tp5295
a(g843
g2
(g6
S'\x0c\nF\xcftI\xd5?'
p5296
tp5297
Rp5298
tp5299
a(g848
g2
(g6
S'\xe3\xea\xbb\xb3Z\x86\x96?'
p5300
tp5301
Rp5302
tp5303
a(g853
g2
(g6
S'\xfab\x1f\xff-j\xdf?'
p5304
tp5305
Rp5306
tp5307
a(g858
g2
(g6
S'\xdb\xa9\xee\xce0\xee\xd0?'
p5308
tp5309
Rp5310
tp5311
a(g863
g2
(g6
S'w\xad\xe5\x17#\xe7\xca?'
p5312
tp5313
Rp5314
tp5315
a(g868
g2
(g6
S'r\x8eS\xd7NR\xe5?'
p5316
tp5317
Rp5318
tp5319
a(g873
g2
(g6
S'/\x16`\x01G`\x86?'
p5320
tp5321
Rp5322
tp5323
a(g878
g2
(g6
S'\xcd\x06\xe5\xf2)\xc4\xcf?'
p5324
tp5325
Rp5326
tp5327
a(g883
g2
(g6
S'\xf7\xc5\x9b\xb8\xf9\x1f\xc8?'
p5328
tp5329
Rp5330
tp5331
a(g888
g2
(g6
S'\xbb\x01"\xa1\x86\x1f\xc5?'
p5332
tp5333
Rp5334
tp5335
a(g893
g2
(g6
S'\n\x81x7\xf8=\xcb?'
p5336
tp5337
Rp5338
tp5339
a(g898
g2
(g6
S'O\xc6L0\t\x08\xb0?'
p5340
tp5341
Rp5342
tp5343
a(g903
g2
(g6
S'\x8b\x88b\xf2\x06\x98\xad?'
p5344
tp5345
Rp5346
tp5347
a(g908
g2
(g6
S'h\xa1SF\x12\xb3\xd8?'
p5348
tp5349
Rp5350
tp5351
a(g913
g2
(g6
S'`\x9f63\xc5\x1f\xc0?'
p5352
tp5353
Rp5354
tp5355
a(g918
g2
(g6
S'/\xbd\x8bd\x80%\x90?'
p5356
tp5357
Rp5358
tp5359
a(g923
g2
(g6
S'j\x1dR\x95\x81\x06\xe0?'
p5360
tp5361
Rp5362
tp5363
a(g928
g2
(g6
S'\xd2\xfeX\x9f\xaa\xf6\xc0?'
p5364
tp5365
Rp5366
tp5367
a(g933
g2
(g6
S'\xdc$\xe8*;\x0f\xd2?'
p5368
tp5369
Rp5370
tp5371
a(g938
g2
(g6
S'>\x06!\xdcA\xc5\xc6?'
p5372
tp5373
Rp5374
tp5375
a(g943
g2
(g6
S'\x1dt{\xdc\xc6\xe5\xdf?'
p5376
tp5377
Rp5378
tp5379
a(g948
g2
(g6
S'\xaf\xc8\x03\x1f\xf0\xb1\xc0?'
p5380
tp5381
Rp5382
tp5383
a(g953
g2
(g6
S'\xf9\x90\xe8Lw*z?'
p5384
tp5385
Rp5386
tp5387
a(g958
g2
(g6
S'P\x9a\xe2~{/\xbc?'
p5388
tp5389
Rp5390
tp5391
a(g963
g2
(g6
S'\xdb\xb7\xfa\xb4\x01\r\xa7?'
p5392
tp5393
Rp5394
tp5395
a(g968
g2
(g6
S'ro<\xa7r\xcd\xe9?'
p5396
tp5397
Rp5398
tp5399
a(g973
g2
(g6
S'\xf7\x83\xa5\xadV\x15\xb4?'
p5400
tp5401
Rp5402
tp5403
a(g978
g2
(g6
S'rm\\\x8a\xa1X\x97?'
p5404
tp5405
Rp5406
tp5407
a(g983
g2
(g6
S'i\xd6\xd0\x08a\xae\xb7?'
p5408
tp5409
Rp5410
tp5411
a(g988
g2
(g6
S';\xb9-1\x99\x81\xd3?'
p5412
tp5413
Rp5414
tp5415
a(g993
g2
(g6
S'\x04\xef\xb6\x9bx\xb8\xd8?'
p5416
tp5417
Rp5418
tp5419
a(g998
g2
(g6
S'=z\xd5`\xa0\x1f\xe2?'
p5420
tp5421
Rp5422
tp5423
a(g1003
g2
(g6
S'\xa1\x85\x04\x8c.\xef\xba?'
p5424
tp5425
Rp5426
tp5427
a(g1008
g2
(g6
S'\x82\xbc\xf6\x83\xbc\xe9\xe0?'
p5428
tp5429
Rp5430
tp5431
a(g1013
g2
(g6
S'\x80^g,b\xa4\xc5?'
p5432
tp5433
Rp5434
tp5435
a(g1018
g2
(g6
S'\xb2\x07\xae\x80\xaf\xd9\xe2?'
p5436
tp5437
Rp5438
tp5439
a(g1023
g2
(g6
S'a,\xb5\xd9\xb6\xfa\xbc?'
p5440
tp5441
Rp5442
tp5443
a(g1028
g2
(g6
S'\xd5\x1e\x7f4_O\xb6?'
p5444
tp5445
Rp5446
tp5447
a(g1033
g2
(g6
S'\x9e\x01jtK\x0e\xce?'
p5448
tp5449
Rp5450
tp5451
a(g1038
g2
(g6
S'\xd5\xec#\xe5^H\xb5?'
p5452
tp5453
Rp5454
tp5455
a(g1043
g2
(g6
S'\x0cr8os\x15\xd8?'
p5456
tp5457
Rp5458
tp5459
a(g1048
g2
(g6
S'\xad;\xc2\xdb\x16\xc4\xe0?'
p5460
tp5461
Rp5462
tp5463
a(g1053
g2
(g6
S'1\x84\x06\xdc\x9f}\xc4?'
p5464
tp5465
Rp5466
tp5467
a(g1058
g2
(g6
S'\x94Dp\x08\xc7\xbf\xd1?'
p5468
tp5469
Rp5470
tp5471
a(g1063
g2
(g6
S'\xdc\xac\xb0\xcfRh\xae?'
p5472
tp5473
Rp5474
tp5475
a(g1068
g2
(g6
S'\xf6\xa5\x9d\xeb\x12\xed\xd7?'
p5476
tp5477
Rp5478
tp5479
a(g1073
g2
(g6
S'\xe3FM\x98\x89\xf2\xe1?'
p5480
tp5481
Rp5482
tp5483
a(g1078
g2
(g6
S'q\xcf\x9f\xa8\xff\xbb\x9c?'
p5484
tp5485
Rp5486
tp5487
a(g1083
g2
(g6
S'\xd3\x18)k\x06~\xc2?'
p5488
tp5489
Rp5490
tp5491
a(g1088
g2
(g6
S'\x12E\x0e2E\x10\xc7?'
p5492
tp5493
Rp5494
tp5495
a(g1093
g2
(g6
S'<\tI\xbf\xadv\xe9?'
p5496
tp5497
Rp5498
tp5499
a(g1098
g2
(g6
S'\xdb\xaf\xf1O_\x85\xa7?'
p5500
tp5501
Rp5502
tp5503
a(g1103
g2
(g6
S'qu\x05}\x17\xe6\xc0?'
p5504
tp5505
Rp5506
tp5507
a(g1108
g2
(g6
S'\x11\xef\x15\xea\xa4\xcf\xd9?'
p5508
tp5509
Rp5510
tp5511
a(g1113
g2
(g6
S'\xf4I=\xf7]\xb2\xd5?'
p5512
tp5513
Rp5514
tp5515
a(g1118
g2
(g6
S')@\x1e>\x0c\x14\xc5?'
p5516
tp5517
Rp5518
tp5519
a(g1123
g2
(g6
S'\xf1\xf6{\xbdV\xdd\xce?'
p5520
tp5521
Rp5522
tp5523
a(g1128
g2
(g6
S'\xff\xd3\xd5i\x193\xc7?'
p5524
tp5525
Rp5526
tp5527
a(g1133
g2
(g6
S'\xd0\xbc5\x13\x80\x9d\xda?'
p5528
tp5529
Rp5530
tp5531
a(g1138
g2
(g6
S'\t\xc4A\xfb\xbe\x93\xe3?'
p5532
tp5533
Rp5534
tp5535
a(g1143
g2
(g6
S'y\xb94\xf06~\xa4?'
p5536
tp5537
Rp5538
tp5539
a(g1148
g2
(g6
S'\x10Y\xe1\xec\x8f\xdd\xb1?'
p5540
tp5541
Rp5542
tp5543
a(g1153
g2
(g6
S']bZ\x0b\x1b\xb4\xb8?'
p5544
tp5545
Rp5546
tp5547
a(g1158
g2
(g6
S'\x94H!\x17<?\xec?'
p5548
tp5549
Rp5550
tp5551
a(g1163
g2
(g6
S'\xec[\x85K\xc9\x9d\xbe?'
p5552
tp5553
Rp5554
tp5555
a(g1168
g2
(g6
S'+\x88\xf8\xbc\x1f\r\xa0?'
p5556
tp5557
Rp5558
tp5559
a(g1173
g2
(g6
S'\x04(\xf2\x96>\x83\xb7?'
p5560
tp5561
Rp5562
tp5563
a(g1178
g2
(g6
S'\xbc\xb6\xecMbI\xb6?'
p5564
tp5565
Rp5566
tp5567
a(g1183
g2
(g6
S'\x11\x90\x8aZ\xf5T\xc6?'
p5568
tp5569
Rp5570
tp5571
a(g1188
g2
(g6
S'K\x19@\x11\xee\xc2\xda?'
p5572
tp5573
Rp5574
tp5575
a(g1193
g2
(g6
S'\x84\xb1\xb8\x11\xac\x10\xd3?'
p5576
tp5577
Rp5578
tp5579
a(g1198
g2
(g6
S'\xa0\x0e\xddL\x82\xc0\xda?'
p5580
tp5581
Rp5582
tp5583
a(g1203
g2
(g6
S'z)\xcd\xca\x1ci\xbe?'
p5584
tp5585
Rp5586
tp5587
a(g1208
g2
(g6
S'N\xdeI\t\x96j\xd0?'
p5588
tp5589
Rp5590
tp5591
a(g1213
g2
(g6
S'I\xf42\x8a\xe5\xf6\xd3?'
p5592
tp5593
Rp5594
tp5595
a(g1218
g2
(g6
S'e\r\xd2\xe4F\xb7\xba?'
p5596
tp5597
Rp5598
tp5599
a(g1223
g2
(g6
S"\xac'\x0c-_U\xba?"
p5600
tp5601
Rp5602
tp5603
a(g1228
g2
(g6
S'\xb3[\r\x81\n4\xe7?'
p5604
tp5605
Rp5606
tp5607
a(g1233
g2
(g6
S'\xb2\x1dm\xcbi7\xe4?'
p5608
tp5609
Rp5610
tp5611
a(g1238
g2
(g6
S'\x8c\x98\x9a\x83\xee2\xbb?'
p5612
tp5613
Rp5614
tp5615
a(g1243
g2
(g6
S'6\xb41\x11\x97\xe5\xdb?'
p5616
tp5617
Rp5618
tp5619
a(g1248
g2
(g6
S'\xf6\xf0\xb6\xe9\x07\x89\xdf?'
p5620
tp5621
Rp5622
tp5623
a(g1253
g2
(g6
S'F\xa7#\x8a\r\xd9\xd3?'
p5624
tp5625
Rp5626
tp5627
a(g1258
g2
(g6
S'Zj\xab\xfc\xac~\xd1?'
p5628
tp5629
Rp5630
tp5631
a(g1263
g2
(g6
S'\xba+\x81\xb5\xe6^\xc5?'
p5632
tp5633
Rp5634
tp5635
a(g1268
g2
(g6
S'\xbd\xc9\xc0\x18\xc9\x12\xd6?'
p5636
tp5637
Rp5638
tp5639
a(g1273
g2
(g6
S'\x91\x83\xaf;\x1f\x96\x80?'
p5640
tp5641
Rp5642
tp5643
a(g1278
g2
(g6
S'\x88\x8bl\x7f\x185\xbe?'
p5644
tp5645
Rp5646
tp5647
a(g1283
g2
(g6
S'(\xc9c\x9b\x8e\x9f\xc1?'
p5648
tp5649
Rp5650
tp5651
a(g1288
g2
(g6
S'\xe0\xfc\xca\xa6\x03\xa9\xb9?'
p5652
tp5653
Rp5654
tp5655
a(g1293
g2
(g6
S'\xb2\x1bg\xe7\xf5&\xb3?'
p5656
tp5657
Rp5658
tp5659
a(g1298
g2
(g6
S'-t\xd4\xba\xd5\x7f\xc2?'
p5660
tp5661
Rp5662
tp5663
a(g1303
g2
(g6
S'\x88!\xd4m\xd22\x95?'
p5664
tp5665
Rp5666
tp5667
a(g1308
g2
(g6
S'\x11\xccM\xabS\xeb\xc0?'
p5668
tp5669
Rp5670
tp5671
a(g1313
g2
(g6
S'\xc2\x11\xe6n\xbe\xae\xc9?'
p5672
tp5673
Rp5674
tp5675
a(g1318
g2
(g6
S'\xffK\xdd\x8b\xeb|\xd0?'
p5676
tp5677
Rp5678
tp5679
a(g1323
g2
(g6
S'qB|\xbb\x80\xb2\xc8?'
p5680
tp5681
Rp5682
tp5683
a(g1328
g2
(g6
S'x8.\xa1\x8a\xf4\xc3?'
p5684
tp5685
Rp5686
tp5687
a(g1333
g2
(g6
S'P\xe3l\xa7\x9ef\xb4?'
p5688
tp5689
Rp5690
tp5691
a(g1338
g2
(g6
S'\x89/xp.\x80\xd7?'
p5692
tp5693
Rp5694
tp5695
a(g1343
g2
(g6
S'~\xd9\xce\xdb\xfes\xcd?'
p5696
tp5697
Rp5698
tp5699
a(g1348
g2
(g6
S'\xae\xca\xfa\xd76\xc8\xd7?'
p5700
tp5701
Rp5702
tp5703
a(g1353
g2
(g6
S'\x9d\xb9\x1a\xe8\xc0C\xe4?'
p5704
tp5705
Rp5706
tp5707
a(g1358
g2
(g6
S'\xee\xd2-\x0b\x8b)\xaf?'
p5708
tp5709
Rp5710
tp5711
a(g1363
g2
(g6
S'\xdcXy\x97\xc5\xa3\xc3?'
p5712
tp5713
Rp5714
tp5715
a(g1368
g2
(g6
S'>\xf4\x1c\x12ph\xdb?'
p5716
tp5717
Rp5718
tp5719
a(g1373
g2
(g6
S'\xd4\x85\x04\xfe\x83\x97\xd9?'
p5720
tp5721
Rp5722
tp5723
a(g1378
g2
(g6
S'H6\xea0E\n\xba?'
p5724
tp5725
Rp5726
tp5727
a(g1383
g2
(g6
S'G\x95f\x95\xc7J\xc0?'
p5728
tp5729
Rp5730
tp5731
a(g1388
g2
(g6
S'\xb5\xda\x00\xc2@\xbd\xbd?'
p5732
tp5733
Rp5734
tp5735
a(g1393
g2
(g6
S'\x17s\xda\xca\x80\xf0\xd1?'
p5736
tp5737
Rp5738
tp5739
a(g1398
g2
(g6
S'\xd5Pr\xa0\xea\x84\xb1?'
p5740
tp5741
Rp5742
tp5743
a(g1403
g2
(g6
S'\x9c7\xa9\xc3e\xb0\xc2?'
p5744
tp5745
Rp5746
tp5747
a(g1408
g2
(g6
S'\xff*\xd9\x14<\x83\xd2?'
p5748
tp5749
Rp5750
tp5751
a(g1413
g2
(g6
S'\xac\xeec\x95j\xa0\xea?'
p5752
tp5753
Rp5754
tp5755
a(g1418
g2
(g6
S'\x96\xc3\xaa\x1e\x89\x87\xc8?'
p5756
tp5757
Rp5758
tp5759
a(g1423
g2
(g6
S'\xd1\xfd \xbb\xa0X\xd1?'
p5760
tp5761
Rp5762
tp5763
a(g1428
g2
(g6
S'y\xca\xcd\xe4YQ\xc2?'
p5764
tp5765
Rp5766
tp5767
a(g1433
g2
(g6
S'N\x98\x93\xc4PV\xb6?'
p5768
tp5769
Rp5770
tp5771
a(g1438
g2
(g6
S'\x14k\xcdc\x884\xeb?'
p5772
tp5773
Rp5774
tp5775
a(g1443
g2
(g6
S'\x94\x96\x8a\xc0jr\xe6?'
p5776
tp5777
Rp5778
tp5779
a(g1448
g2
(g6
S'/\x95\xda2\xb0\xf3\xd2?'
p5780
tp5781
Rp5782
tp5783
a(g1453
g2
(g6
S'\xae\xf0\xc1z\xc2c\xb6?'
p5784
tp5785
Rp5786
tp5787
a(g1458
g2
(g6
S'^\xf6\xebNw~\xd7?'
p5788
tp5789
Rp5790
tp5791
a(g1463
g2
(g6
S'5X\xd8\xd6\xc6M\xc6?'
p5792
tp5793
Rp5794
tp5795
a(g1468
g2
(g6
S'\x85\xf1\xfe8\x94s\xc0?'
p5796
tp5797
Rp5798
tp5799
a(g1473
g2
(g6
S'g\x1bW\xda\xe4\x9b\xb8?'
p5800
tp5801
Rp5802
tp5803
a(g1478
g2
(g6
S'\x1cd9\xd9k\x99\xb0?'
p5804
tp5805
Rp5806
tp5807
a(g1483
g2
(g6
S'\xdc\xee\x8a\x85\xc6\xb8\xbf?'
p5808
tp5809
Rp5810
tp5811
a(g1488
g2
(g6
S'aH\xe9\xfa\x87\xf2\xa4?'
p5812
tp5813
Rp5814
tp5815
a(g1493
g2
(g6
S'\x1ds\xdb\x14H\xb6\xa1?'
p5816
tp5817
Rp5818
tp5819
a(g1498
g2
(g6
S'dB\xbaB\x99B\xe1?'
p5820
tp5821
Rp5822
tp5823
a(g1503
g2
(g6
S'\xcf\x06\xafI\xf6\x89}?'
p5824
tp5825
Rp5826
tp5827
a(g1508
g2
(g6
S'n\xe0C\xc6\xf9\x94\xc0?'
p5828
tp5829
Rp5830
tp5831
a(g1513
g2
(g6
S'\x16\x81\xe4\xaf&\xd5\x8e?'
p5832
tp5833
Rp5834
tp5835
a(g1518
g2
(g6
S'\x8c\x03a\x07\xcb\x01\xd7?'
p5836
tp5837
Rp5838
tp5839
a(g1523
g2
(g6
S'\x94q8e\x01\xa2\xc4?'
p5840
tp5841
Rp5842
tp5843
a(g1528
g2
(g6
S'\xeb\x93\xc0\x0c\xe4\xae\xe2?'
p5844
tp5845
Rp5846
tp5847
a(g1533
g2
(g6
S'XEs\xf5G>\x91?'
p5848
tp5849
Rp5850
tp5851
a(g1538
g2
(g6
S'\xc6\xb8\xc4\x8cN\x88\xd2?'
p5852
tp5853
Rp5854
tp5855
a(g1543
g2
(g6
S"\xdaP\x01\x95\xc9'\xbd?"
p5856
tp5857
Rp5858
tp5859
a(g1548
g2
(g6
S'\x8a\x145^\xdb\x97\xc4?'
p5860
tp5861
Rp5862
tp5863
a(g1553
g2
(g6
S'\x9c\xcc\x03Nr\xa4\xc2?'
p5864
tp5865
Rp5866
tp5867
a(g1558
g2
(g6
S'\x96A\x99lZ\xee\xc7?'
p5868
tp5869
Rp5870
tp5871
a(g1563
g2
(g6
S'Ks\x89\xf5\xd6\x18\xd1?'
p5872
tp5873
Rp5874
tp5875
a(g1568
g2
(g6
S'\xef\x9a\x97\x90\xfd\x96\xc9?'
p5876
tp5877
Rp5878
tp5879
a(g1573
g2
(g6
S'\xce\xf8\xa5\x1b\xb4i\xe5?'
p5880
tp5881
Rp5882
tp5883
a(g1578
g2
(g6
S'\x8f\xcb\xf7\r\xc5\xbd\xc6?'
p5884
tp5885
Rp5886
tp5887
a(g1583
g2
(g6
S'H\xacK\xe1\xcf\xdd\xba?'
p5888
tp5889
Rp5890
tp5891
a(g1588
g2
(g6
S'\x1b\x1bO>\x1c(\xb6?'
p5892
tp5893
Rp5894
tp5895
a(g1593
g2
(g6
S'\xadg\xbc8\xe7\xe3\xc0?'
p5896
tp5897
Rp5898
tp5899
a(g1598
g2
(g6
S'\x9c}\xc22fm\xc2?'
p5900
tp5901
Rp5902
tp5903
a(g1603
g2
(g6
S'\x90I\xc5M\xad\x01\xc9?'
p5904
tp5905
Rp5906
tp5907
a(g1608
g2
(g6
S'\xf1\xb3\xbf#\x92\xd7\xd3?'
p5908
tp5909
Rp5910
tp5911
a(g1613
g2
(g6
S'\xce\x84\xaa\xc1\xc9p\x9b?'
p5912
tp5913
Rp5914
tp5915
a(g1618
g2
(g6
S'_\x8d\x95\x93\xaek\xb8?'
p5916
tp5917
Rp5918
tp5919
a(g1623
g2
(g6
S'U\t0\xdb7\xff\xd7?'
p5920
tp5921
Rp5922
tp5923
a(g1628
g2
(g6
S'\xbaE\xc3\xd6*i\xd2?'
p5924
tp5925
Rp5926
tp5927
a(g1633
g2
(g6
S'\xe4\xdb\x0cN|I\xd6?'
p5928
tp5929
Rp5930
tp5931
a(g1638
g2
(g6
S'4Y\xe39I\xad\xe4?'
p5932
tp5933
Rp5934
tp5935
a(g1643
g2
(g6
S'\x90\xfe_\xc1r\x0e\xb2?'
p5936
tp5937
Rp5938
tp5939
a(g1648
g2
(g6
S"\x91\xb7\xceR\xc1'\xd8?"
p5940
tp5941
Rp5942
tp5943
a(g1653
g2
(g6
S'h3G\x89o>\xb3?'
p5944
tp5945
Rp5946
tp5947
a(g1658
g2
(g6
S'R\xa9`\xf4\xdfz\xd6?'
p5948
tp5949
Rp5950
tp5951
a(g1663
g2
(g6
S'q{\xb7\xb6F\xbd\xa3?'
p5952
tp5953
Rp5954
tp5955
a(g1668
g2
(g6
S'\xdfQ\x1cm@\xf7\xd6?'
p5956
tp5957
Rp5958
tp5959
a(g1673
g2
(g6
S'\xd5\xee\x91\xacG\x8a\xb4?'
p5960
tp5961
Rp5962
tp5963
a(g1678
g2
(g6
S'=\xa0\xbd\x11\x15^\xc6?'
p5964
tp5965
Rp5966
tp5967
a(g1683
g2
(g6
S'\x0e\xcc\xa9\x1b*1\xd8?'
p5968
tp5969
Rp5970
tp5971
a(g1688
g2
(g6
S'w\x0c\x97nu\xed\xc8?'
p5972
tp5973
Rp5974
tp5975
a(g1693
g2
(g6
S'\x9b\xe9\xbe\x99! \x98?'
p5976
tp5977
Rp5978
tp5979
a(g1698
g2
(g6
S'\x92i\x11\xaa\x04f\xc6?'
p5980
tp5981
Rp5982
tp5983
a(g1703
g2
(g6
S'\xea\xa3rd\xfc3\xd7?'
p5984
tp5985
Rp5986
tp5987
a(g1708
g2
(g6
S"\xc4\x83c\x1f/'\xe3?"
p5988
tp5989
Rp5990
tp5991
a(g1713
g2
(g6
S'\xe9\x16\x96L\ty\xda?'
p5992
tp5993
Rp5994
tp5995
a(g1718
g2
(g6
S'\xb2\xa8\x8a\xd4t0\xc0?'
p5996
tp5997
Rp5998
tp5999
a(g1723
g2
(g6
S'\x8d\xe9\xb8\x03=\xa0\xb3?'
p6000
tp6001
Rp6002
tp6003
a(g1728
g2
(g6
S'\xfeF\xf4\x98l/\xdd?'
p6004
tp6005
Rp6006
tp6007
a(g1733
g2
(g6
S'\xe2\xd3,h\x0b|\xdd?'
p6008
tp6009
Rp6010
tp6011
a(g1738
g2
(g6
S'\xed\x13O\\\xdf\x9e\xb6?'
p6012
tp6013
Rp6014
tp6015
a(g1743
g2
(g6
S'\x83[S-\xdd5\xbf?'
p6016
tp6017
Rp6018
tp6019
a(g1748
g2
(g6
S'\x8e:\xbe\xe6\xeaq\xe2?'
p6020
tp6021
Rp6022
tp6023
a(g1753
g2
(g6
S'_E*\xb2\xf4\xc6\xd1?'
p6024
tp6025
Rp6026
tp6027
a(g1758
g2
(g6
S'\xf4`\xbd\x17\x80\xc2\xa9?'
p6028
tp6029
Rp6030
tp6031
a(g1763
g2
(g6
S'\xe6\xe1\x0c\x17\x1cR\xb1?'
p6032
tp6033
Rp6034
tp6035
a(g1768
g2
(g6
S'.\xb1 7=\xf4\xd3?'
p6036
tp6037
Rp6038
tp6039
a(g1773
g2
(g6
S'6\xe9\x02\xd3s\xcf\xd6?'
p6040
tp6041
Rp6042
tp6043
a(g1778
g2
(g6
S'\xb3\x198\x84P\xcc\xe4?'
p6044
tp6045
Rp6046
tp6047
a(g1783
g2
(g6
S'\xf4\x1f\xe6SF\xea\xcb?'
p6048
tp6049
Rp6050
tp6051
a(g1788
g2
(g6
S'\xc2k%\xe13\xb3\xd1?'
p6052
tp6053
Rp6054
tp6055
a(g1793
g2
(g6
S'\t\xebi\x01\x86W\x81?'
p6056
tp6057
Rp6058
tp6059
a(g1798
g2
(g6
S'\xda\x1e\x13\xe2\xf7Z\xa1?'
p6060
tp6061
Rp6062
tp6063
a(g1803
g2
(g6
S'\xfa\xa7\x81\n:f\xa1?'
p6064
tp6065
Rp6066
tp6067
a(g1808
g2
(g6
S'\x90!X9\xda\x0f\xbe?'
p6068
tp6069
Rp6070
tp6071
a(g1813
g2
(g6
S'\xd7I\xd1Xh\x08\xe5?'
p6072
tp6073
Rp6074
tp6075
a(g1818
g2
(g6
S'\xd7\x98\x1c\xe6\xe7`\xa8?'
p6076
tp6077
Rp6078
tp6079
a(g1823
g2
(g6
S'\xa8K\x1a1 \x8c\xd0?'
p6080
tp6081
Rp6082
tp6083
a(g1828
g2
(g6
S';7w8\xdd\xd9\xb8?'
p6084
tp6085
Rp6086
tp6087
a(g1833
g2
(g6
S'6D\x12F~\xa0\xe5?'
p6088
tp6089
Rp6090
tp6091
a(g1838
g2
(g6
S'\xd3\xf4 \xd7b\xc4\xa3?'
p6092
tp6093
Rp6094
tp6095
a(g1843
g2
(g6
S'\x0f\xb4(\n\xf9B\xd0?'
p6096
tp6097
Rp6098
tp6099
a(g1848
g2
(g6
S'\x964\xf3\xa2~0\xd1?'
p6100
tp6101
Rp6102
tp6103
a(g1853
g2
(g6
S'\xd8"\x9c(\x9f$\xb5?'
p6104
tp6105
Rp6106
tp6107
a(g1858
g2
(g6
S'\xc1\xe1m\xf4\x1d{\xd2?'
p6108
tp6109
Rp6110
tp6111
a(g1863
g2
(g6
S'\xc9\xa1\xd6\x18\x9a\t\x8f?'
p6112
tp6113
Rp6114
tp6115
a(g1868
g2
(g6
S'\x8c{\xf6\xd3\xb4\xc8\xb1?'
p6116
tp6117
Rp6118
tp6119
a(g1873
g2
(g6
S'\xc8X\xa0\xef\x04\x01\xb1?'
p6120
tp6121
Rp6122
tp6123
a(g1878
g2
(g6
S'\xa8!\xda)~\xd5\xda?'
p6124
tp6125
Rp6126
tp6127
a(g1883
g2
(g6
S'\x13\x83\xd4\xae\x88\xa8\xd0?'
p6128
tp6129
Rp6130
tp6131
a(g1888
g2
(g6
S'\xe9e\xd7g\x15\xb0\xdd?'
p6132
tp6133
Rp6134
tp6135
a(g1893
g2
(g6
S'\xdf>\\\x86\xc0\xd0\xc0?'
p6136
tp6137
Rp6138
tp6139
a(g1898
g2
(g6
S'\xbe\xf1\x80u\xc6\xbe\xd9?'
p6140
tp6141
Rp6142
tp6143
a(g1903
g2
(g6
S'\x06\xb7\xab\x13t\xd4\xae?'
p6144
tp6145
Rp6146
tp6147
a(g1908
g2
(g6
S'\xa4i\xb3^\xca\xc8\xca?'
p6148
tp6149
Rp6150
tp6151
a(g1913
g2
(g6
S'\xaa\xe5\xe8\xa04\\\xc8?'
p6152
tp6153
Rp6154
tp6155
a(g1918
g2
(g6
S'\xc46\xc8ujf\xa0?'
p6156
tp6157
Rp6158
tp6159
a(g1923
g2
(g6
S'\x1fo\xbfj\xcf&\xb0?'
p6160
tp6161
Rp6162
tp6163
a(g1928
g2
(g6
S'<.\xc6\x9as\x9b\xe6?'
p6164
tp6165
Rp6166
tp6167
a(g1933
g2
(g6
S'f4\xdb\xddO\x02\x85?'
p6168
tp6169
Rp6170
tp6171
a(g1938
g2
(g6
S'\xd6C\xea,iK\xe9?'
p6172
tp6173
Rp6174
tp6175
a(g1943
g2
(g6
S'\x8f\x17\x81\x9a"\x0c\xba?'
p6176
tp6177
Rp6178
tp6179
a(g1948
g2
(g6
S'\x90E\xcdi\xac\x03\xbc?'
p6180
tp6181
Rp6182
tp6183
a(g1953
g2
(g6
S'6\x91\xd6nt\xfb\xb7?'
p6184
tp6185
Rp6186
tp6187
a(g1958
g2
(g6
S'Z-\xba9\xb8\x9b\xc2?'
p6188
tp6189
Rp6190
tp6191
a(g1963
g2
(g6
S'\x80"\xe1>\x1c+\xcb?'
p6192
tp6193
Rp6194
tp6195
a(g1968
g2
(g6
S'v\xebS\x93\x82\x1c\xb1?'
p6196
tp6197
Rp6198
tp6199
a(g1973
g2
(g6
S'\x05\xd3\x96^\x8ec\x9f?'
p6200
tp6201
Rp6202
tp6203
a(g1978
g2
(g6
S'\x18\xa4\x97S-\xe2\xc5?'
p6204
tp6205
Rp6206
tp6207
a(g1983
g2
(g6
S'\x96\xf5\xdf\xa6\xe6\xa2\xdc?'
p6208
tp6209
Rp6210
tp6211
a(g1988
g2
(g6
S'\xcf\x95\xbf}H\xb8\xc6?'
p6212
tp6213
Rp6214
tp6215
a(g1993
g2
(g6
S'\x12\xf4\x7f]9\xba\xc6?'
p6216
tp6217
Rp6218
tp6219
a(g1998
g2
(g6
S'\x1eQ\xa6ss\xa1\xc2?'
p6220
tp6221
Rp6222
tp6223
a(g2003
g2
(g6
S'2\xe8h{\x12\xdd\xaf?'
p6224
tp6225
Rp6226
tp6227
a(g2008
g2
(g6
S'k^\xa0g]\xaa\xc0?'
p6228
tp6229
Rp6230
tp6231
a(g2013
g2
(g6
S' qF\xcfX\xf4\xc5?'
p6232
tp6233
Rp6234
tp6235
a(g2018
g2
(g6
S'\xf7\xe8\x84\x054\xe7\xcf?'
p6236
tp6237
Rp6238
tp6239
a(g2023
g2
(g6
S'.o%s\xe0\xc0\xe7?'
p6240
tp6241
Rp6242
tp6243
a(g2028
g2
(g6
S'\xacf3\r\xde\xe5\xa5?'
p6244
tp6245
Rp6246
tp6247
a(g2033
g2
(g6
S'\xc4\xd1\x80:\x18\xc3\xb0?'
p6248
tp6249
Rp6250
tp6251
a(g2038
g2
(g6
S'C!\xbb8\x15<\xe7?'
p6252
tp6253
Rp6254
tp6255
a(g2043
g2
(g6
S'a\xdd\xb5\xda|\x89\x96?'
p6256
tp6257
Rp6258
tp6259
a(g2048
g2
(g6
S'\xc9\xa6M\xb60\xa4\xe4?'
p6260
tp6261
Rp6262
tp6263
a(g2053
g2
(g6
S'\x80Y\x0c\xe4\xfas\xbb?'
p6264
tp6265
Rp6266
tp6267
a(g2058
g2
(g6
S'\x91\xdf)\x84\xd8\x10\xa6?'
p6268
tp6269
Rp6270
tp6271
a(g2063
g2
(g6
S'.yU\xca\xdf\xfb\xcc?'
p6272
tp6273
Rp6274
tp6275
a(g2068
g2
(g6
S'\n\x07\xe2?TO\xae?'
p6276
tp6277
Rp6278
tp6279
a(g2073
g2
(g6
S'.\x7fN\xd9\x9a\x81\xc5?'
p6280
tp6281
Rp6282
tp6283
a(g2078
g2
(g6
S'\xb2d\x93\x9e\x17\xfe\xd3?'
p6284
tp6285
Rp6286
tp6287
a(g2083
g2
(g6
S'.\xc0g\xb9\xa6\x9f\xd4?'
p6288
tp6289
Rp6290
tp6291
a(g2088
g2
(g6
S'8\x03\xd5\x9f\xfa\x90\x9a?'
p6292
tp6293
Rp6294
tp6295
a(g2093
g2
(g6
S'n\x1cX^W+\xc2?'
p6296
tp6297
Rp6298
tp6299
a(g2098
g2
(g6
S'\x82\x83S\xa5\x81\xcd\xd0?'
p6300
tp6301
Rp6302
tp6303
a(g2103
g2
(g6
S"'2\xea\x8fm/\xca?"
p6304
tp6305
Rp6306
tp6307
a(g2108
g2
(g6
S'k\xc2\xe9i/^\xd5?'
p6308
tp6309
Rp6310
tp6311
a(g2113
g2
(g6
S'S\xfd\x01\x11\r\x1b\xe4?'
p6312
tp6313
Rp6314
tp6315
a(g2118
g2
(g6
S'\x85\xfa\n\x90ps\xa1?'
p6316
tp6317
Rp6318
tp6319
a(g2123
g2
(g6
S'\xd5\xd0\xbf\x8aw\xf3\xb7?'
p6320
tp6321
Rp6322
tp6323
a(g2128
g2
(g6
S'\x8eF\x1a\xe9\x00\xd9\xc9?'
p6324
tp6325
Rp6326
tp6327
a(g2133
g2
(g6
S'\xb6\xfa\xceU\x11\xf3\xd5?'
p6328
tp6329
Rp6330
tp6331
a(g2138
g2
(g6
S'Z\t\\\xa5[y\xcc?'
p6332
tp6333
Rp6334
tp6335
a(g2143
g2
(g6
S' \xae\xf0\xbc\xc1\xc8\xcf?'
p6336
tp6337
Rp6338
tp6339
a(g2148
g2
(g6
S'\x059b\x0c0\x1c\xc0?'
p6340
tp6341
Rp6342
tp6343
a(g2153
g2
(g6
S'%\x0f\x1b\x977h\xc7?'
p6344
tp6345
Rp6346
tp6347
a(g2158
g2
(g6
S'\x85\xd1\xd23\xc2}\x82?'
p6348
tp6349
Rp6350
tp6351
a(g2163
g2
(g6
S'\x08\x0c\x01\xdc\x06\x97\xbc?'
p6352
tp6353
Rp6354
tp6355
a(g2168
g2
(g6
S'\xd6\x0cd\xce\x17a\xcd?'
p6356
tp6357
Rp6358
tp6359
a(g2173
g2
(g6
S'~=C^-\xfc\xc9?'
p6360
tp6361
Rp6362
tp6363
a(g2178
g2
(g6
S'\xee\xb2\x85>]\xbf\xcb?'
p6364
tp6365
Rp6366
tp6367
a(g2183
g2
(g6
S'iV(ea\xee\xc4?'
p6368
tp6369
Rp6370
tp6371
a(g2188
g2
(g6
S'S\x9dR\x81:5\xc4?'
p6372
tp6373
Rp6374
tp6375
a(g2193
g2
(g6
S'}\xaa\x00\x9bPa\xb9?'
p6376
tp6377
Rp6378
tp6379
a(g2198
g2
(g6
S"EaT\xa8'Y\xbc?"
p6380
tp6381
Rp6382
tp6383
a(g2203
g2
(g6
S'\x85\xa16\xf3\xa9\xd8\xdf?'
p6384
tp6385
Rp6386
tp6387
a(g2208
g2
(g6
S'\x14\xac\xca\xeed\x18\xdd?'
p6388
tp6389
Rp6390
tp6391
a(g2213
g2
(g6
S'\xad{\xc6\xe6,\xb1\x91?'
p6392
tp6393
Rp6394
tp6395
a(g2218
g2
(g6
S'\xb9\x89\xc76\x8a\xdb\xd1?'
p6396
tp6397
Rp6398
tp6399
a(g2223
g2
(g6
S'\x1aKtp\x92a\xc9?'
p6400
tp6401
Rp6402
tp6403
a(g2228
g2
(g6
S'U5*8\x08\xaf\xb0?'
p6404
tp6405
Rp6406
tp6407
a(g2233
g2
(g6
S'w\x9b\x95\xbf\x0b\xf3\xad?'
p6408
tp6409
Rp6410
tp6411
a(g2238
g2
(g6
S'\xa3\xe2\x9f\x1c|\x16\xba?'
p6412
tp6413
Rp6414
tp6415
a(g2243
g2
(g6
S'\t@v\xf3a\x11\xd8?'
p6416
tp6417
Rp6418
tp6419
a(g2248
g2
(g6
S'\xc3\xeb-\xf7_-\xcf?'
p6420
tp6421
Rp6422
tp6423
a(g2253
g2
(g6
S'tQ\xc2\x86\x86i\xe0?'
p6424
tp6425
Rp6426
tp6427
a(g2258
g2
(g6
S'\xb7\x19\xfai\xd4*\xab?'
p6428
tp6429
Rp6430
tp6431
a(g2263
g2
(g6
S'$w\x82D\xad\xc5\xb2?'
p6432
tp6433
Rp6434
tp6435
a(g2268
g2
(g6
S'mf\xcc\xdb\x13O\xa8?'
p6436
tp6437
Rp6438
tp6439
a(g2273
g2
(g6
S"\xeb\x04'\xe73\xbc\xbc?"
p6440
tp6441
Rp6442
tp6443
a(g2278
g2
(g6
S'\xbb2\x12\x1b\xd8<\xd2?'
p6444
tp6445
Rp6446
tp6447
a(g2283
g2
(g6
S'\xb7/r\xdf\x02\x1a\xdf?'
p6448
tp6449
Rp6450
tp6451
a(g2288
g2
(g6
S'I\xf7\x825\x1f\xee\x92?'
p6452
tp6453
Rp6454
tp6455
a(g2293
g2
(g6
S'\xe7\x15\xd8.0\xd5\xc4?'
p6456
tp6457
Rp6458
tp6459
a(g2298
g2
(g6
S'\\\x0f\xb2n\xb4\xca\xbc?'
p6460
tp6461
Rp6462
tp6463
a(g2303
g2
(g6
S'\xdd\x82\x05-\xad\xd1\xe4?'
p6464
tp6465
Rp6466
tp6467
a(g2308
g2
(g6
S'\xf1\xa8\xe7\x93\xcbu\xc7?'
p6468
tp6469
Rp6470
tp6471
a(g2313
g2
(g6
S'\x15\x03\x03\x8cW\xee\x91?'
p6472
tp6473
Rp6474
tp6475
a(g2318
g2
(g6
S'\xb6\xbdzha\xc7\xc9?'
p6476
tp6477
Rp6478
tp6479
a(g2323
g2
(g6
S'\xe9\x10L\xf6NS\x8b?'
p6480
tp6481
Rp6482
tp6483
a(g2328
g2
(g6
S'w\xd0\x15:\xe9\x1c\xde?'
p6484
tp6485
Rp6486
tp6487
a(g2333
g2
(g6
S'\x01\x92IC\x16\xb4\xc8?'
p6488
tp6489
Rp6490
tp6491
a(g2338
g2
(g6
S'\x1cG\x95)2O\xd4?'
p6492
tp6493
Rp6494
tp6495
a(g2343
g2
(g6
S'\xc5\xd7\xe3-s\x94\xae?'
p6496
tp6497
Rp6498
tp6499
a(g2348
g2
(g6
S'\x8f\x12[D\x8ba\xc8?'
p6500
tp6501
Rp6502
tp6503
a(g2353
g2
(g6
S'\xff\xd0\x01\x86;\xd0\xbf?'
p6504
tp6505
Rp6506
tp6507
a(g2358
g2
(g6
S'\xeb\xd4\x97\xd0\x1d\xb7\xca?'
p6508
tp6509
Rp6510
tp6511
a(g2363
g2
(g6
S'\t\x8b\xdb\x7f\x9cD\xd2?'
p6512
tp6513
Rp6514
tp6515
a(g2368
g2
(g6
S'c\xbem\xba&#\x95?'
p6516
tp6517
Rp6518
tp6519
a(g2373
g2
(g6
S'\xaf\x00\xfa\x0b\xaa~\xb4?'
p6520
tp6521
Rp6522
tp6523
a(g2378
g2
(g6
S'\xa1\r`\x94\x17\xce\xc6?'
p6524
tp6525
Rp6526
tp6527
a(g2383
g2
(g6
S'\xbe\x85\xb7\xff\xaf\xd7\x97?'
p6528
tp6529
Rp6530
tp6531
a(g2388
g2
(g6
S'>c}\x08L\xd5m?'
p6532
tp6533
Rp6534
tp6535
a(g2393
g2
(g6
S'\x94\x85h\xda\xe9\xba\xcb?'
p6536
tp6537
Rp6538
tp6539
a(g2398
g2
(g6
S'\xa0\x19\xcey\xe9\r\xd8?'
p6540
tp6541
Rp6542
tp6543
a(g2403
g2
(g6
S'<\xe5\\\x809\x17\xd1?'
p6544
tp6545
Rp6546
tp6547
a(g2408
g2
(g6
S'\xf0O\x1bhM\x92\xcc?'
p6548
tp6549
Rp6550
tp6551
a(g2413
g2
(g6
S'\xbc\x90\xff\xe33\x02\xcc?'
p6552
tp6553
Rp6554
tp6555
a(g2418
g2
(g6
S'\xee\xdbg\x9aR\x8c\x99?'
p6556
tp6557
Rp6558
tp6559
a(g2423
g2
(g6
S'\x81w_\x86\xe0\x87\xde?'
p6560
tp6561
Rp6562
tp6563
a(g2428
g2
(g6
S'<\x13j\xeb\x7f7\xaa?'
p6564
tp6565
Rp6566
tp6567
a(g2433
g2
(g6
S'\x83\xa0W\xc7\xe7\xd1\x8d?'
p6568
tp6569
Rp6570
tp6571
a(g2438
g2
(g6
S'\xd5\x92\xfb\x0e_\xd5\xc3?'
p6572
tp6573
Rp6574
tp6575
a(g2443
g2
(g6
S'\x96\xbcy+\xc4\x83c?'
p6576
tp6577
Rp6578
tp6579
a(g2448
g2
(g6
S'\t\x9ep\xe6\xbfV\xc3?'
p6580
tp6581
Rp6582
tp6583
a(g2453
g2
(g6
S'\xb6\x16Yw\x9b\x13\xc0?'
p6584
tp6585
Rp6586
tp6587
a(g2458
g2
(g6
S'\x89\xdd7\xf1\xe7q\xa5?'
p6588
tp6589
Rp6590
tp6591
a(g2463
g2
(g6
S'1\xae<q\xce\x02\xc2?'
p6592
tp6593
Rp6594
tp6595
a(g2468
g2
(g6
S'\xd4\x01\xedg\xe1\xcd\xc4?'
p6596
tp6597
Rp6598
tp6599
a(g2473
g2
(g6
S'\xcbOGS\x7fe\xe3?'
p6600
tp6601
Rp6602
tp6603
a(g2478
g2
(g6
S'\xf4A9Kus\xc0?'
p6604
tp6605
Rp6606
tp6607
a(g2483
g2
(g6
S'\xcb\xe3$%!\xb7\xc8?'
p6608
tp6609
Rp6610
tp6611
a(g2488
g2
(g6
S'[X\xf8y\xdaa\xd1?'
p6612
tp6613
Rp6614
tp6615
a(g2493
g2
(g6
S'\x90\xf3\xb2\xb1\x08\x01\xb2?'
p6616
tp6617
Rp6618
tp6619
a(g2498
g2
(g6
S'\xf1\xae6\xa3?d\x90?'
p6620
tp6621
Rp6622
tp6623
a(g2503
g2
(g6
S'm\x85P\xa8\x1e\x1e\xc1?'
p6624
tp6625
Rp6626
tp6627
a(g2508
g2
(g6
S'f\x83\x8eND\x1c\xc4?'
p6628
tp6629
Rp6630
tp6631
a(g2513
g2
(g6
S'\x82|\x0b\x16G\x98\xca?'
p6632
tp6633
Rp6634
tp6635
a(g2518
g2
(g6
S'\xab\xf6\x0c\x88\xe0\x1d\xa7?'
p6636
tp6637
Rp6638
tp6639
a(g2523
g2
(g6
S'!\xdem\xf0\x1b\xa5\xc5?'
p6640
tp6641
Rp6642
tp6643
a(g2528
g2
(g6
S'\x16V\xbaS\xebQ\xc8?'
p6644
tp6645
Rp6646
tp6647
a(g2533
g2
(g6
S'|{5\x121=\xb8?'
p6648
tp6649
Rp6650
tp6651
a(g2538
g2
(g6
S'\xd4\xe4\xb0\x9b\x1c5\xc5?'
p6652
tp6653
Rp6654
tp6655
a(g2543
g2
(g6
S'>\xd3/76@\xbb?'
p6656
tp6657
Rp6658
tp6659
a(g2548
g2
(g6
S'\xbc7LUV\xaa\xbc?'
p6660
tp6661
Rp6662
tp6663
a(g2553
g2
(g6
S'W\x96Z\x82\x9bk\xc2?'
p6664
tp6665
Rp6666
tp6667
a(g2558
g2
(g6
S'*\xb76R\x8b\x18\xe2?'
p6668
tp6669
Rp6670
tp6671
a(g2563
g2
(g6
S'\x04\x02\x14X=6\xc2?'
p6672
tp6673
Rp6674
tp6675
a(g2568
g2
(g6
S'\xd7\xde\xfd\xaa\x89i\xcd?'
p6676
tp6677
Rp6678
tp6679
a(g2573
g2
(g6
S'\x99\xff\xb3\x8d\x0f\xd8\xd1?'
p6680
tp6681
Rp6682
tp6683
a(g2578
g2
(g6
S'\ta\xc6\xf8VB\xb2?'
p6684
tp6685
Rp6686
tp6687
a(g2583
g2
(g6
S'&.]Gp1\xd6?'
p6688
tp6689
Rp6690
tp6691
a(g2588
g2
(g6
S'E\x02\xbf\xa6\x04\r\xc4?'
p6692
tp6693
Rp6694
tp6695
a(g2593
g2
(g6
S'4\xfbF\xb8\xec\xf7\xc7?'
p6696
tp6697
Rp6698
tp6699
a(g2598
g2
(g6
S'K&\x90\xda\x10X\xb5?'
p6700
tp6701
Rp6702
tp6703
a(g2603
g2
(g6
S'\x03\xd2\x08z\xcb\\\xdb?'
p6704
tp6705
Rp6706
tp6707
a(g2608
g2
(g6
S'5\xe7\xd1n\xa3\xea\xc5?'
p6708
tp6709
Rp6710
tp6711
a(g2613
g2
(g6
S'\xa7&\x84\xb8\xb9\xbb\xe0?'
p6712
tp6713
Rp6714
tp6715
a(g2618
g2
(g6
S'y{)\x9f\x92\xb1\xb5?'
p6716
tp6717
Rp6718
tp6719
a(g2623
g2
(g6
S'\xb7\xea[b<\xb5\xab?'
p6720
tp6721
Rp6722
tp6723
a(g2628
g2
(g6
S'{j\x83\x80m\xde\xb3?'
p6724
tp6725
Rp6726
tp6727
a(g2633
g2
(g6
S"a\xce'\x83\x87\x8f\xad?"
p6728
tp6729
Rp6730
tp6731
a(g2638
g2
(g6
S'JJ+\xd2\x85W\xd0?'
p6732
tp6733
Rp6734
tp6735
a(g2643
g2
(g6
S'\t\x8d\x8bcWl\xb1?'
p6736
tp6737
Rp6738
tp6739
a(g2648
g2
(g6
S'\x1e\x05\x0e\xbc\xe8\x98\xb6?'
p6740
tp6741
Rp6742
tp6743
a(g2653
g2
(g6
S'a\xbe@9\x9ft\x91?'
p6744
tp6745
Rp6746
tp6747
a(g2658
g2
(g6
S'\xa8A}=\xf2\x16\x94?'
p6748
tp6749
Rp6750
tp6751
a(g2663
g2
(g6
S'\r\xd4\x8fq\xb8k\xe4?'
p6752
tp6753
Rp6754
tp6755
a(g2668
g2
(g6
S'\xd16\x9e\xd28\x89\xbc?'
p6756
tp6757
Rp6758
tp6759
a(g2673
g2
(g6
S'PU\x85,)\\\xd3?'
p6760
tp6761
Rp6762
tp6763
a(g2678
g2
(g6
S'Q\x1a2j3X\xa4?'
p6764
tp6765
Rp6766
tp6767
a(g2683
g2
(g6
S'\xda\x00\xbd\x87\x83x\xc5?'
p6768
tp6769
Rp6770
tp6771
a(g2688
g2
(g6
S'R\xb7\xae\xf6\x82\x1f\xd3?'
p6772
tp6773
Rp6774
tp6775
a(g2693
g2
(g6
S"'\xa5^\xbfy4\xda?"
p6776
tp6777
Rp6778
tp6779
a(g2698
g2
(g6
S'A\xe7=\xe7\xd1\xc1\xc1?'
p6780
tp6781
Rp6782
tp6783
a(g2703
g2
(g6
S'\xdd\x9f\xcf\xa3\x89\x07\xe4?'
p6784
tp6785
Rp6786
tp6787
a(g2708
g2
(g6
S'\x19\xe3\xb9z\xf2\t\xb3?'
p6788
tp6789
Rp6790
tp6791
a(g2713
g2
(g6
S'\xb1\x05\xe0F\x9a\xdd\x90?'
p6792
tp6793
Rp6794
tp6795
a(g2718
g2
(g6
S'\x84\x8f\na\n\x16\xc8?'
p6796
tp6797
Rp6798
tp6799
a(g2723
g2
(g6
S'\x8fZ\r\xfb\xd0\x04\xe7?'
p6800
tp6801
Rp6802
tp6803
a(g2728
g2
(g6
S' d=\xdb\xc1\r\xd2?'
p6804
tp6805
Rp6806
tp6807
a(g2733
g2
(g6
S'\xbfk\xa7\x18\xadD\xdf?'
p6808
tp6809
Rp6810
tp6811
a(g2738
g2
(g6
S'i\xf9m\xc7U\xde\xaf?'
p6812
tp6813
Rp6814
tp6815
a(g2743
g2
(g6
S'\xb0Q\xbd\xd2\x85\xda\xd8?'
p6816
tp6817
Rp6818
tp6819
a(g2748
g2
(g6
S'\xaa\x87\n\x03\x061\xe2?'
p6820
tp6821
Rp6822
tp6823
a(g2753
g2
(g6
S'\xb1$d\x13\xa5\x9c\xe5?'
p6824
tp6825
Rp6826
tp6827
a(g2758
g2
(g6
S'\xad\xaa\xcc\xd19\xf8\x9f?'
p6828
tp6829
Rp6830
tp6831
a(g2763
g2
(g6
S'\t\xbb\xee\xceV5\x93?'
p6832
tp6833
Rp6834
tp6835
a(g2768
g2
(g6
S'5\xe0\r\x18\ra\xb8?'
p6836
tp6837
Rp6838
tp6839
a(g2773
g2
(g6
S"' I\xf0V\xfb\xaa?"
p6840
tp6841
Rp6842
tp6843
a(g2778
g2
(g6
S'\x80G\xe7\x0b@t\xbf?'
p6844
tp6845
Rp6846
tp6847
a(g2783
g2
(g6
S'\x8e\x14\x8f`\xea\xf4\xc3?'
p6848
tp6849
Rp6850
tp6851
a(g2788
g2
(g6
S'\xb9\xec\x17\xb9\x95\x18\xe1?'
p6852
tp6853
Rp6854
tp6855
a(g2793
g2
(g6
S'\xfcqGt\xd9,\xb4?'
p6856
tp6857
Rp6858
tp6859
a(g2798
g2
(g6
S'\x14\xb7\x02\xf1WT\xb6?'
p6860
tp6861
Rp6862
tp6863
a(g2803
g2
(g6
S'\xa23\x87\xa9\xcf\x03\xb6?'
p6864
tp6865
Rp6866
tp6867
a(g2808
g2
(g6
S'1\xfe\xa1\x8c\xfd\x14\xc6?'
p6868
tp6869
Rp6870
tp6871
a(g2813
g2
(g6
S'\xa6Y\x1f]\x0c\xa8\xc7?'
p6872
tp6873
Rp6874
tp6875
a(g2818
g2
(g6
S'\x94\xf7\x9c\xb4\xa3Jj?'
p6876
tp6877
Rp6878
tp6879
a(g2823
g2
(g6
S'q\xdcs\xaa\xc6\xdc\xb7?'
p6880
tp6881
Rp6882
tp6883
a(g2828
g2
(g6
S'\xe6\xc1\x9e\xf5w\x96\xc9?'
p6884
tp6885
Rp6886
tp6887
a(g2833
g2
(g6
S'@\xef\xd2\xf5`\xac\xb4?'
p6888
tp6889
Rp6890
tp6891
a(g2838
g2
(g6
S'\x07c\xbb\xb0r\xde\xd5?'
p6892
tp6893
Rp6894
tp6895
a(g2843
g2
(g6
S'\xd8\xfd\x860N\x81\xd0?'
p6896
tp6897
Rp6898
tp6899
a(g2848
g2
(g6
S'G\xfd\x07\xee\xc6\xf6\xd1?'
p6900
tp6901
Rp6902
tp6903
a(g2853
g2
(g6
S'}\x8e\xbdNR\xaf\xd2?'
p6904
tp6905
Rp6906
tp6907
a(g2858
g2
(g6
S'\xb5C\x91(\x93\x9e\x9a?'
p6908
tp6909
Rp6910
tp6911
a(g2863
g2
(g6
S'\x0f\xf9\xf2\xf8y\xb0\xcc?'
p6912
tp6913
Rp6914
tp6915
a(g2868
g2
(g6
S'\xcd,`\x07p(\xc0?'
p6916
tp6917
Rp6918
tp6919
a(g2873
g2
(g6
S'X\x10\xe4O=\x1a\xca?'
p6920
tp6921
Rp6922
tp6923
a(g2878
g2
(g6
S'$\xa9u\xb08\xfb\xb2?'
p6924
tp6925
Rp6926
tp6927
a(g2883
g2
(g6
S'\x92\xd9\x9d\x11L\x05Z?'
p6928
tp6929
Rp6930
tp6931
a(g2888
g2
(g6
S'\x7f?\x88\xa6\xe4\xe3\xd8?'
p6932
tp6933
Rp6934
tp6935
a(g2893
g2
(g6
S'\xbf\xb8\x08\x17\xe8\x96\xc0?'
p6936
tp6937
Rp6938
tp6939
a(g2898
g2
(g6
S'\xa6\xf03=G5\x9d?'
p6940
tp6941
Rp6942
tp6943
a(g2903
g2
(g6
S']\x8a\xd6J\x1b\xa0\xd5?'
p6944
tp6945
Rp6946
tp6947
a(g2908
g2
(g6
S'\xd2\xd7\xfb\xa6\x13}\xc5?'
p6948
tp6949
Rp6950
tp6951
a(g2913
g2
(g6
S'!\xfe\xe0\xcay\xc9~?'
p6952
tp6953
Rp6954
tp6955
a(g2918
g2
(g6
S'\xd0#S\xf9/\xf4\xa1?'
p6956
tp6957
Rp6958
tp6959
a(g2923
g2
(g6
S'PF\xbd)\xaa\xd3\xb9?'
p6960
tp6961
Rp6962
tp6963
a(g2928
g2
(g6
S'\x05\x12\xfb\xa1%!\xe6?'
p6964
tp6965
Rp6966
tp6967
a(g2933
g2
(g6
S'\x02\xe6\x8c\xeeA\x84\xd8?'
p6968
tp6969
Rp6970
tp6971
a(g2938
g2
(g6
S'~\x19\xa8f\xb8\x1c\xe5?'
p6972
tp6973
Rp6974
tp6975
a(g2943
g2
(g6
S'cn\xce\xf3m\xe2x?'
p6976
tp6977
Rp6978
tp6979
a(g2948
g2
(g6
S'\xba\xb9`\xbf\x13\x12\xd3?'
p6980
tp6981
Rp6982
tp6983
a(g2953
g2
(g6
S'.b\x00*\x1a\xc0\xb9?'
p6984
tp6985
Rp6986
tp6987
a(g2958
g2
(g6
S'T\xdf\x827gn\xbe?'
p6988
tp6989
Rp6990
tp6991
a(g2963
g2
(g6
S'{\xb1\xcf\x1a\xbe\xb0\x99?'
p6992
tp6993
Rp6994
tp6995
a(g2968
g2
(g6
S'\xc8M\xdf\xfb\xb3\xd0\xc7?'
p6996
tp6997
Rp6998
tp6999
a(g2973
g2
(g6
S'0\x0b\xd4\xff\xc5u\x96?'
p7000
tp7001
Rp7002
tp7003
a(g2978
g2
(g6
S'r\xc5\xcf\xc3,\x9b\xcd?'
p7004
tp7005
Rp7006
tp7007
a(g2983
g2
(g6
S'\xb7\xd0\x1e\xfa\xb1s\xb5?'
p7008
tp7009
Rp7010
tp7011
a(g2988
g2
(g6
S'\xe6M\x01\r\x8f\x8d\xea?'
p7012
tp7013
Rp7014
tp7015
a(g2993
g2
(g6
S'\xf1\xca5\xd2@\x96\xb7?'
p7016
tp7017
Rp7018
tp7019
a(g2998
g2
(g6
S'\xb7\n\xca\x83\xe00\xa6?'
p7020
tp7021
Rp7022
tp7023
a(g3003
g2
(g6
S'X\xbb\xe1\xcf\xd4\x11\x9a?'
p7024
tp7025
Rp7026
tp7027
a(g3008
g2
(g6
S'\xdc\x81:\xe5\xd1\xcd\xc4?'
p7028
tp7029
Rp7030
tp7031
a(g3013
g2
(g6
S'A\x17G\xc4\x18\xc1\xce?'
p7032
tp7033
Rp7034
tp7035
a(g3018
g2
(g6
S'<\xef\x15\xc9\x96f\x98?'
p7036
tp7037
Rp7038
tp7039
a(g3023
g2
(g6
S'\x1f\x13\rx\xb77\xb5?'
p7040
tp7041
Rp7042
tp7043
a(g3028
g2
(g6
S'Q\x84\xf0B\x1cf\xb2?'
p7044
tp7045
Rp7046
tp7047
a(g3033
g2
(g6
S'\xcf>\x12\xd3\xde\xd0\xcf?'
p7048
tp7049
Rp7050
tp7051
a(g3038
g2
(g6
S'a\x83\xdeK|V\xd6?'
p7052
tp7053
Rp7054
tp7055
a(g3043
g2
(g6
S'\xe9"\xb8\xa3\x95\x01\xd6?'
p7056
tp7057
Rp7058
tp7059
a(g3048
g2
(g6
S'\x8ek\x1b\xfdj\xd9\xd5?'
p7060
tp7061
Rp7062
tp7063
a(g3053
g2
(g6
S'-\xcda\x82\x10Lr?'
p7064
tp7065
Rp7066
tp7067
a(g3058
g2
(g6
S'\xcbHq\x19-c\xd7?'
p7068
tp7069
Rp7070
tp7071
a(g3063
g2
(g6
S'\x13\xb8\x91\x8c~/\x91?'
p7072
tp7073
Rp7074
tp7075
a(g3068
g2
(g6
S'\xeb\x1c\xc1\x95\x05v\xb7?'
p7076
tp7077
Rp7078
tp7079
a(g3073
g2
(g6
S'\x1e\xe8"7#\xe0\xd1?'
p7080
tp7081
Rp7082
tp7083
a(g3078
g2
(g6
S"'\x025\xb2\xb4\x9e\xd1?"
p7084
tp7085
Rp7086
tp7087
a(g3083
g2
(g6
S'`gz\xf1\x94\xc1\xa6?'
p7088
tp7089
Rp7090
tp7091
a(g3088
g2
(g6
S'2n\xdf\xadp\xee\xd9?'
p7092
tp7093
Rp7094
tp7095
a(g3093
g2
(g6
S'\xa8a*\xc3\xd9)\xb4?'
p7096
tp7097
Rp7098
tp7099
a(g3098
g2
(g6
S'\xad\xee\xa2\xf9\xad\xe7\xb6?'
p7100
tp7101
Rp7102
tp7103
a(g3103
g2
(g6
S'!\xf8\x8c\x02L\xb2\xb3?'
p7104
tp7105
Rp7106
tp7107
a(g3108
g2
(g6
S'?\xafaN\x1c\xf5\xc5?'
p7108
tp7109
Rp7110
tp7111
a(g3113
g2
(g6
S'g\x1fp\xcc\xce|\xa1?'
p7112
tp7113
Rp7114
tp7115
a(g3118
g2
(g6
S'*\x18\x14T\xf4\n\xb0?'
p7116
tp7117
Rp7118
tp7119
a(g3123
g2
(g6
S'\x14\xb5\xfc\x0c\xe4\xe3\xa1?'
p7120
tp7121
Rp7122
tp7123
a(g3128
g2
(g6
S'\xdd<p\xf6P`\xcb?'
p7124
tp7125
Rp7126
tp7127
a(g3133
g2
(g6
S"\xafO;'\xb6\xb5\xa3?"
p7128
tp7129
Rp7130
tp7131
a(g3138
g2
(g6
S'\x8e\xb4G\xb4\x8c\xf0\xab?'
p7132
tp7133
Rp7134
tp7135
a(g3143
g2
(g6
S'\xff\x9e\xe3\x99S\xa6\xc3?'
p7136
tp7137
Rp7138
tp7139
a(g3148
g2
(g6
S'\x19\x14\x17\x91r\xa1\xdc?'
p7140
tp7141
Rp7142
tp7143
a(g3153
g2
(g6
S'\xb04\x95\xea\xa7\xa4\xa0?'
p7144
tp7145
Rp7146
tp7147
a(g3158
g2
(g6
S'\xf0\xc3\xe3\xd0\x92/\x95?'
p7148
tp7149
Rp7150
tp7151
a(g3163
g2
(g6
S'\xf5\x87\xfe\xba\xe7\x01\xbd?'
p7152
tp7153
Rp7154
tp7155
a(g3168
g2
(g6
S'\x83\xf9\xb9\x0e\xc6iw?'
p7156
tp7157
Rp7158
tp7159
a(g3173
g2
(g6
S'\xc5\x9f4\x16E\xf6\xa7?'
p7160
tp7161
Rp7162
tp7163
a(g3178
g2
(g6
S'-\x9e\xda\x16\xee\xa7\xb1?'
p7164
tp7165
Rp7166
tp7167
a(g3183
g2
(g6
S"\xad\x03\xa6'\xba\x1b\xcf?"
p7168
tp7169
Rp7170
tp7171
a(g3188
g2
(g6
S'!>M\xb9\x04\x98\xc8?'
p7172
tp7173
Rp7174
tp7175
a(g3193
g2
(g6
S'\x87\xa8/<\x10\x88\xb8?'
p7176
tp7177
Rp7178
tp7179
a(g3198
g2
(g6
S'\x89\x05\xda\xf7\x8a\t\xd4?'
p7180
tp7181
Rp7182
tp7183
a(g3203
g2
(g6
S'\x1aW\xb2\x1cN\xc4\xd5?'
p7184
tp7185
Rp7186
tp7187
a(g3208
g2
(g6
S'\x0f\xbd\xf5\xfc\x91\xeb\xbe?'
p7188
tp7189
Rp7190
tp7191
a(g3213
g2
(g6
S'OC\x84\x1a\xe6\x8d\xc5?'
p7192
tp7193
Rp7194
tp7195
a(g3218
g2
(g6
S'iK\x88\x7f\xf9 \xc3?'
p7196
tp7197
Rp7198
tp7199
a(g3223
g2
(g6
S'\xde\x0bx\x0b\xb7\x8b\x91?'
p7200
tp7201
Rp7202
tp7203
a(g3228
g2
(g6
S'UZ\n>\x89,\xc1?'
p7204
tp7205
Rp7206
tp7207
a(g3233
g2
(g6
S'+\xf0\xcc\x06\xc4d\xb7?'
p7208
tp7209
Rp7210
tp7211
a(g3238
g2
(g6
S'\xd6Y\xae0\xdd!\x8e?'
p7212
tp7213
Rp7214
tp7215
a(g3243
g2
(g6
S'q\xefT\x9f/F\xd7?'
p7216
tp7217
Rp7218
tp7219
a(g3248
g2
(g6
S'#\xa6o\x92\x19\x81\x8e?'
p7220
tp7221
Rp7222
tp7223
a(g3253
g2
(g6
S'\x17(@Lv\xf7\x8e?'
p7224
tp7225
Rp7226
tp7227
a(g3258
g2
(g6
S'4S\x10\xf20\xe3\xc6?'
p7228
tp7229
Rp7230
tp7231
a(g3263
g2
(g6
S'\x91[\xa0\x98Md\xa7?'
p7232
tp7233
Rp7234
tp7235
a(g3268
g2
(g6
S'\xd1ogx\x16q\xc9?'
p7236
tp7237
Rp7238
tp7239
a(g3273
g2
(g6
S'\x19\xa4vED\xdf\xd7?'
p7240
tp7241
Rp7242
tp7243
a(g3278
g2
(g6
S'?\x89\x9a\xab\x909\x9f?'
p7244
tp7245
Rp7246
tp7247
a(g3283
g2
(g6
S'\xc3YV\t2\xdc\xb6?'
p7248
tp7249
Rp7250
tp7251
a(g3288
g2
(g6
S'\xe1\x89\xb10j\x15\x98?'
p7252
tp7253
Rp7254
tp7255
a(g3293
g2
(g6
S'\x9e1\xad\xfc\x1b|m?'
p7256
tp7257
Rp7258
tp7259
a(g3298
g2
(g6
S'H\x9b\xa3\xc1\x7fP\x9d?'
p7260
tp7261
Rp7262
tp7263
a(g3303
g2
(g6
S'][\xc14\xe1\x9e\xc7?'
p7264
tp7265
Rp7266
tp7267
a(g3308
g2
(g6
S'\xd1\xe8\x97S\xc5.\xe0?'
p7268
tp7269
Rp7270
tp7271
a(g3313
g2
(g6
S'\xd8z\x8e\xe1\x14\xcax?'
p7272
tp7273
Rp7274
tp7275
a(g3318
g2
(g6
S'\xcc\xb6\x91\xba\xb6\x1a\xcc?'
p7276
tp7277
Rp7278
tp7279
a(g3323
g2
(g6
S'/\xae\xc8\x1a\xbb\xa5\xc3?'
p7280
tp7281
Rp7282
tp7283
a(g3328
g2
(g6
S'V\xb6\x9d#\xe3\xb2\xba?'
p7284
tp7285
Rp7286
tp7287
a(g3333
g2
(g6
S'p\xdf\xb9\xe3\x8c"\xc7?'
p7288
tp7289
Rp7290
tp7291
a(g3338
g2
(g6
S'(]\xe1\xfa\x03\xa7\xb6?'
p7292
tp7293
Rp7294
tp7295
a(g3343
g2
(g6
S'\x10\x01\xa8^\x8e\x89\xae?'
p7296
tp7297
Rp7298
tp7299
a(g3348
g2
(g6
S'\x81R)\x80\xa6\xa1\xd7?'
p7300
tp7301
Rp7302
tp7303
a(g3353
g2
(g6
S'\xc8d\xa18\xa8F\xb1?'
p7304
tp7305
Rp7306
tp7307
a(g3358
g2
(g6
S'\xc5c\x04)\xb8%\xb9?'
p7308
tp7309
Rp7310
tp7311
a(g3363
g2
(g6
S'\x9b\xa6\xfdF\xa3\x91\xc2?'
p7312
tp7313
Rp7314
tp7315
a(g3368
g2
(g6
S'\xbb\re\x06\xfc\xaa\xad?'
p7316
tp7317
Rp7318
tp7319
a(g3373
g2
(g6
S'\x05B\xd1\x8d\xc7D\xba?'
p7320
tp7321
Rp7322
tp7323
a(g3378
g2
(g6
S'\xf92\x86v\xa4\xb3\x9f?'
p7324
tp7325
Rp7326
tp7327
a(g3383
g2
(g6
S'\x8fg\xa4\x99\x7f\xd8\x80?'
p7328
tp7329
Rp7330
tp7331
a(g3388
g2
(g6
S'\xad\x03\x1d6\\\xa7\xbb?'
p7332
tp7333
Rp7334
tp7335
a(g3393
g2
(g6
S'\xfbLI\x18\xfez\xc7?'
p7336
tp7337
Rp7338
tp7339
a(g3398
g2
(g6
S'uK.\xa3\xb1&\xa3?'
p7340
tp7341
Rp7342
tp7343
a(g3403
g2
(g6
S't:\xe4\xf4b\x19\xa9?'
p7344
tp7345
Rp7346
tp7347
a(g3408
g2
(g6
S'Z\xa8-\\\xf3\xb6\xbb?'
p7348
tp7349
Rp7350
tp7351
a(g3413
g2
(g6
S'\x90-\x08;~\x95\xd4?'
p7352
tp7353
Rp7354
tp7355
a(g3418
g2
(g6
S'\xb22\xc6\xf9.\xb4\xd2?'
p7356
tp7357
Rp7358
tp7359
a(g3423
g2
(g6
S'T}\xa2C\xc4s\xb7?'
p7360
tp7361
Rp7362
tp7363
a(g3428
g2
(g6
S'\xb2\xc8\x9a\x84\x17\xec\xa0?'
p7364
tp7365
Rp7366
tp7367
a(g3433
g2
(g6
S'\xa1\x8a\x13FP\x08\xba?'
p7368
tp7369
Rp7370
tp7371
a(g3438
g2
(g6
S'\xe3\x04s\xe2\x15b\xdc?'
p7372
tp7373
Rp7374
tp7375
a(g3443
g2
(g6
S'\x9b09l]\x95\xb1?'
p7376
tp7377
Rp7378
tp7379
a(g3448
g2
(g6
S'\xd1@}\xe28\xa4\x9c?'
p7380
tp7381
Rp7382
tp7383
a(g3453
g2
(g6
S'\xe6\xd5\xe0M\x1c\x18\xc0?'
p7384
tp7385
Rp7386
tp7387
a(g3458
g2
(g6
S'\xde\x89\xce<\xfd\xc3\x8d?'
p7388
tp7389
Rp7390
tp7391
a(g3463
g2
(g6
S'|\xd23\x04\x9a\xa4\xdd?'
p7392
tp7393
Rp7394
tp7395
a(g3468
g2
(g6
S'\xfa\xf8\xa7\xfb\xd0j\x88?'
p7396
tp7397
Rp7398
tp7399
a(g3473
g2
(g6
S'u\xc6\xf2\x0c\xecA\xb1?'
p7400
tp7401
Rp7402
tp7403
a(g3478
g2
(g6
S'd\x9e\xe3CS\xed\xb1?'
p7404
tp7405
Rp7406
tp7407
a(g3483
g2
(g6
S'<iNO9U\xc8?'
p7408
tp7409
Rp7410
tp7411
a(g3488
g2
(g6
S'\x98\x19$\xe7>e\xd4?'
p7412
tp7413
Rp7414
tp7415
a(g3493
g2
(g6
S'\xd1*\x98\xd0\xdb\xda\x93?'
p7416
tp7417
Rp7418
tp7419
a(g3498
g2
(g6
S'\xdb\x92x \x82\x0f\xab?'
p7420
tp7421
Rp7422
tp7423
a(g3503
g2
(g6
S'\xc1 ?\xd4\xe3\xa2\xc5?'
p7424
tp7425
Rp7426
tp7427
a(g3508
g2
(g6
S'i\x85\x8e\xc2\x9a\xef\xb4?'
p7428
tp7429
Rp7430
tp7431
a(g3513
g2
(g6
S'[&\x86\x8ed)\xba?'
p7432
tp7433
Rp7434
tp7435
a(g3518
g2
(g6
S'\x00\xefaR#\xc4\xb6?'
p7436
tp7437
Rp7438
tp7439
a(g3523
g2
(g6
S'\xd5b\xdeM1\xb3\x81?'
p7440
tp7441
Rp7442
tp7443
a(g3528
g2
(g6
S'\x15D\n\x89\xa7\xe3\xc7?'
p7444
tp7445
Rp7446
tp7447
a(g3533
g2
(g6
S'\rnED,\xc0\xc9?'
p7448
tp7449
Rp7450
tp7451
a(g3538
g2
(g6
S'D\x1f\x87\x1c\xb6\x88\x83?'
p7452
tp7453
Rp7454
tp7455
a(g3543
g2
(g6
S'"\xe3\xbe\xc6\x0fD\x9d?'
p7456
tp7457
Rp7458
tp7459
a(g3548
g2
(g6
S'h<X\x99\x05\xe7\xb6?'
p7460
tp7461
Rp7462
tp7463
a(g3553
g2
(g6
S'!H\x8a:\x063\xc2?'
p7464
tp7465
Rp7466
tp7467
a(g3558
g2
(g6
S')E\x1e\xcd\x003\xbd?'
p7468
tp7469
Rp7470
tp7471
a(g3563
g2
(g6
S'\x14\x06I\xc5\x1dt\xb4?'
p7472
tp7473
Rp7474
tp7475
a(g3568
g2
(g6
S'\x05\x85\x16\x19\xea\x1e\xbe?'
p7476
tp7477
Rp7478
tp7479
a(g3573
g2
(g6
S'\x06we\xec\x8b\x91\xc6?'
p7480
tp7481
Rp7482
tp7483
a(g3578
g2
(g6
S'\xd8\x94\xa5\x82\xfc\xffw?'
p7484
tp7485
Rp7486
tp7487
a(g3583
g2
(g6
S'\x95v\xe9\xad!;\xac?'
p7488
tp7489
Rp7490
tp7491
a(g3588
g2
(g6
S'\x1f\xfb\xb9\x9eq\xac\xad?'
p7492
tp7493
Rp7494
tp7495
a(g3593
g2
(g6
S'\x8b\xdf|9\x9f9\xc4?'
p7496
tp7497
Rp7498
tp7499
a(g3598
g2
(g6
S'\xc1^c\xc2(\xfb\xc3?'
p7500
tp7501
Rp7502
tp7503
a(g3603
g2
(g6
S'-\x19\xeb\x0en\xda\xa1?'
p7504
tp7505
Rp7506
tp7507
a(g3608
g2
(g6
S'\xae\xe0&\xbf\x1f`\xbb?'
p7508
tp7509
Rp7510
tp7511
a(g3613
g2
(g6
S'\xbeM\x7f\xf6#\xc5\xbc?'
p7512
tp7513
Rp7514
tp7515
a(g3618
g2
(g6
S'\x82a\xaffSd\xbc?'
p7516
tp7517
Rp7518
tp7519
a(g3623
g2
(g6
S'e\xcb\xea\x04\xd1\xe6\xba?'
p7520
tp7521
Rp7522
tp7523
a(g3628
g2
(g6
S"D'\xd7V\xe4>\xba?"
p7524
tp7525
Rp7526
tp7527
a(g3633
g2
(g6
S'ak\xa2\x0e\xac\\\x8c?'
p7528
tp7529
Rp7530
tp7531
a(g3638
g2
(g6
S'\xa3HaX\xaa\xfd\xba?'
p7532
tp7533
Rp7534
tp7535
a(g3643
g2
(g6
S'\xda\xdbQ\x8fy\x8c\xab?'
p7536
tp7537
Rp7538
tp7539
a(g3648
g2
(g6
S'L-\xd5\xb1\xbc>\xaf?'
p7540
tp7541
Rp7542
tp7543
a(g3653
g2
(g6
S'\x8c\x9d\xa4\x84Vc\xd8?'
p7544
tp7545
Rp7546
tp7547
a(g3658
g2
(g6
S'`K]l9\x9b\xba?'
p7548
tp7549
Rp7550
tp7551
a(g3663
g2
(g6
S'\xaaw\x07d\xee;\xd1?'
p7552
tp7553
Rp7554
tp7555
a(g3668
g2
(g6
S'\xc4#\xec9\xbb\xa5\xd3?'
p7556
tp7557
Rp7558
tp7559
a(g3673
g2
(g6
S'\xcd\xb1\xbc\xab\x1e0\xc0?'
p7560
tp7561
Rp7562
tp7563
a(g3678
g2
(g6
S'\xd5jO\x96Hl\xd1?'
p7564
tp7565
Rp7566
tp7567
a(g3683
g2
(g6
S'Ce\x96\x19C\xf4\x9e?'
p7568
tp7569
Rp7570
tp7571
a(g3688
g2
(g6
S'%\x04\x85#C,\xc2?'
p7572
tp7573
Rp7574
tp7575
a(g3693
g2
(g6
S'\xe6L;~m\x12\xca?'
p7576
tp7577
Rp7578
tp7579
a(g3698
g2
(g6
S'\x13\xae\xfe\n\xc4+\xdc?'
p7580
tp7581
Rp7582
tp7583
a(g3703
g2
(g6
S'lJ\xf1r\x8an\xb5?'
p7584
tp7585
Rp7586
tp7587
a(g3708
g2
(g6
S'd\x8aAy\x82\xf1\xd4?'
p7588
tp7589
Rp7590
tp7591
a(g3713
g2
(g6
S'\xad\xa9@\xee\xa1\xeb\xdd?'
p7592
tp7593
Rp7594
tp7595
a(g3718
g2
(g6
S'LH\x1d}\xc9\x0f\xc4?'
p7596
tp7597
Rp7598
tp7599
a(g3723
g2
(g6
S'\xa1\x87QE.\x8e\xa9?'
p7600
tp7601
Rp7602
tp7603
a(g3728
g2
(g6
S'\x81\xf5n\xe2\x9a\xf1\xb9?'
p7604
tp7605
Rp7606
tp7607
a(g3733
g2
(g6
S'\xcb\xf0\x07R\x15\x92\xb7?'
p7608
tp7609
Rp7610
tp7611
a(g3738
g2
(g6
S'\xfb\xe7\xf2\xb1~\x1d\xd6?'
p7612
tp7613
Rp7614
tp7615
a(g3743
g2
(g6
S'>\r\xe0y\x1e\xe6\xc8?'
p7616
tp7617
Rp7618
tp7619
a(g3748
g2
(g6
S'\x89\x95>e\x16\xd0\xe0?'
p7620
tp7621
Rp7622
tp7623
a(g3753
g2
(g6
S'\xd3;\xa0bX"\xbd?'
p7624
tp7625
Rp7626
tp7627
a(g3758
g2
(g6
S'\xbdf33\xa5\x88\x9d?'
p7628
tp7629
Rp7630
tp7631
a(g3763
g2
(g6
S'/<\xdb\x15\x8d\xc4\x92?'
p7632
tp7633
Rp7634
tp7635
a(g3768
g2
(g6
S'\xe9\x81\xbf\xfa\xa0\xb0\x85?'
p7636
tp7637
Rp7638
tp7639
a(g3773
g2
(g6
S'\xf1~\xeea\xb5M\xa7?'
p7640
tp7641
Rp7642
tp7643
a(g3778
g2
(g6
S'>tX\x19A.\xce?'
p7644
tp7645
Rp7646
tp7647
a(g3783
g2
(g6
S'\xfc\x13\x18\x8f\xabA\xb4?'
p7648
tp7649
Rp7650
tp7651
a(g3788
g2
(g6
S'\x9c\x9f@\xaa\xf1\xea\xb1?'
p7652
tp7653
Rp7654
tp7655
a(g3793
g2
(g6
S'A\xccS\x8d\xc6\xf0\xaa?'
p7656
tp7657
Rp7658
tp7659
a(g3798
g2
(g6
S'\x1d}\xea]^\xae\x85?'
p7660
tp7661
Rp7662
tp7663
a(g3803
g2
(g6
S'\xb4"\x90irS\xc3?'
p7664
tp7665
Rp7666
tp7667
a(g3808
g2
(g6
S'#\xe7\x8d+\xdfG\xaa?'
p7668
tp7669
Rp7670
tp7671
a(g3813
g2
(g6
S'\xd6\xf4\xef\xe6\xe8r\xbc?'
p7672
tp7673
Rp7674
tp7675
a(g3818
g2
(g6
S'\x7f\xe0\tA7\xc9\x89?'
p7676
tp7677
Rp7678
tp7679
a(g3823
g2
(g6
S'\x98w`\xf6n0\xd9?'
p7680
tp7681
Rp7682
tp7683
a(g3828
g2
(g6
S';U\x9dY;\x1f\x84?'
p7684
tp7685
Rp7686
tp7687
a(g3833
g2
(g6
S'[\x0fx\xc3*\xec\xe0?'
p7688
tp7689
Rp7690
tp7691
a(g3838
g2
(g6
S'S\x117?\xaf\x0c\xb6?'
p7692
tp7693
Rp7694
tp7695
a(g3843
g2
(g6
S'\xd8\x88\xc0\x8e\x88\xf4\xa1?'
p7696
tp7697
Rp7698
tp7699
a(g3848
g2
(g6
S'Y\xcf\xd9\x9a^\xf6\xb1?'
p7700
tp7701
Rp7702
tp7703
a(g3853
g2
(g6
S'\xdbA\\\xa1^\x1c\xcc?'
p7704
tp7705
Rp7706
tp7707
a(g3858
g2
(g6
S'\x85:hS\xceg\xd8?'
p7708
tp7709
Rp7710
tp7711
a(g3863
g2
(g6
S'(\x86\xd7:\xe0V\xb1?'
p7712
tp7713
Rp7714
tp7715
a(g3868
g2
(g6
S'\x92\xa1\xf8k\x91\xb8\xb1?'
p7716
tp7717
Rp7718
tp7719
a(g3873
g2
(g6
S'\x8cH\xb9\xa0c\xac\xa7?'
p7720
tp7721
Rp7722
tp7723
a(g3878
g2
(g6
S'\xf9\x86\xe8.\x8e\x0c\xdd?'
p7724
tp7725
Rp7726
tp7727
a(g3883
g2
(g6
S'`=\x8b1\xf2\xaa\x95?'
p7728
tp7729
Rp7730
tp7731
a(g3888
g2
(g6
S'\xfa\x97\xe6N\x97b\xa4?'
p7732
tp7733
Rp7734
tp7735
a(g3893
g2
(g6
S".Rj'1\xa5\xd1?"
p7736
tp7737
Rp7738
tp7739
a(g3898
g2
(g6
S'+\xde\xac\xe7\xc2M\xa3?'
p7740
tp7741
Rp7742
tp7743
a(g3903
g2
(g6
S'\x82W\xa5\xd6\xf6\xd4\xbc?'
p7744
tp7745
Rp7746
tp7747
a(g3908
g2
(g6
S'\xef-\xf1\xefO\xc3\xc1?'
p7748
tp7749
Rp7750
tp7751
a(g3913
g2
(g6
S'\x8a\xae\xc4i\xac\xf0\xab?'
p7752
tp7753
Rp7754
tp7755
a(g3918
g2
(g6
S'/B\xbd\x88\xd2\xb8\x8d?'
p7756
tp7757
Rp7758
tp7759
a(g3923
g2
(g6
S'\xf9\x89\xecK\x82,\xbe?'
p7760
tp7761
Rp7762
tp7763
a(g3928
g2
(g6
S'9\xb0\x91.zJ\xb6?'
p7764
tp7765
Rp7766
tp7767
a(g3933
g2
(g6
S'\x17\xf5\xe1\n<\xb8\xaf?'
p7768
tp7769
Rp7770
tp7771
a(g3938
g2
(g6
S'!4C)\xa8H\xda?'
p7772
tp7773
Rp7774
tp7775
a(g3943
g2
(g6
S'O\x84\xc8zN@\xd4?'
p7776
tp7777
Rp7778
tp7779
a(g3948
g2
(g6
S"1='\xde}\x05\xd1?"
p7780
tp7781
Rp7782
tp7783
a(g3953
g2
(g6
S'p\xeer\xbb\xde\x90\xc0?'
p7784
tp7785
Rp7786
tp7787
a(g3958
g2
(g6
S'0\x80\xf0\xa1DK\x9c?'
p7788
tp7789
Rp7790
tp7791
a(g3963
g2
(g6
S'\xd0\x03\x9e\x02\x00\xca\xaa?'
p7792
tp7793
Rp7794
tp7795
a(g3968
g2
(g6
S'\x93\n\xb1\x9a\xb1_\xb8?'
p7796
tp7797
Rp7798
tp7799
a(g3973
g2
(g6
S'u\xb9&|m8\xa1?'
p7800
tp7801
Rp7802
tp7803
a(g3978
g2
(g6
S'pSi\xaf1t\xbe?'
p7804
tp7805
Rp7806
tp7807
a(g3983
g2
(g6
S'x\xac\xda\xb4\xa0\x97\x84?'
p7808
tp7809
Rp7810
tp7811
a(g3988
g2
(g6
S'\xd7\xa0FYs\x0b\x9b?'
p7812
tp7813
Rp7814
tp7815
a(g3993
g2
(g6
S'\xb1\x7f\xedL\xe0W\xa3?'
p7816
tp7817
Rp7818
tp7819
a(g3998
g2
(g6
S'\xdc\xcf\xa8G\xbai\xbe?'
p7820
tp7821
Rp7822
tp7823
a(g4003
g2
(g6
S'\x0f\xbb\x8c\xeebr\xd3?'
p7824
tp7825
Rp7826
tp7827
a(g4008
g2
(g6
S'\x0c\x07\xc32\x96\x86\xd1?'
p7828
tp7829
Rp7830
tp7831
a(g4013
g2
(g6
S'\xf1\x16\xf4Pn\xea\xaf?'
p7832
tp7833
Rp7834
tp7835
a(g4018
g2
(g6
S'r\x15`_\xb8!\xcf?'
p7836
tp7837
Rp7838
tp7839
a(g4023
g2
(g6
S'\x02\xc0S\xf6\xcdeq?'
p7840
tp7841
Rp7842
tp7843
a(g4028
g2
(g6
S'\xaf\xe2x1\xd9g\xe1?'
p7844
tp7845
Rp7846
tp7847
a(g4033
g2
(g6
S'\xae\xc2\xc6\xf27L\xd4?'
p7848
tp7849
Rp7850
tp7851
a(g4038
g2
(g6
S'`\x12\xb0\x1b\x8b\xad\x97?'
p7852
tp7853
Rp7854
tp7855
a(g4043
g2
(g6
S't0\xdad\x06\x8a\xa5?'
p7856
tp7857
Rp7858
tp7859
a(g4048
g2
(g6
S'\xa1\xd4\xc1n\x96\x9a\x94?'
p7860
tp7861
Rp7862
tp7863
a(g4053
g2
(g6
S'G\x96C\xc0^\xb7\xa8?'
p7864
tp7865
Rp7866
tp7867
a(g4058
g2
(g6
S'\xa4\xf5\x99\xae\x85+P?'
p7868
tp7869
Rp7870
tp7871
a(g4063
g2
(g6
S'_\xbf\x1bc\x0bg\xa4?'
p7872
tp7873
Rp7874
tp7875
a(g4068
g2
(g6
S'\xa7$ cD[\x9b?'
p7876
tp7877
Rp7878
tp7879
a(g4073
g2
(g6
S"y'\xb3\x02\xc2\xd5\x95?"
p7880
tp7881
Rp7882
tp7883
a(g4078
g2
(g6
S'\x15yi\xf5\x9b\xaa\x83?'
p7884
tp7885
Rp7886
tp7887
a(g4083
g2
(g6
S'H?\xf1\xceg\xc1\xdf?'
p7888
tp7889
Rp7890
tp7891
a(g4088
g2
(g6
S'\xfb"\xf2t\xe6\xd2\x99?'
p7892
tp7893
Rp7894
tp7895
a(g4093
g2
(g6
S'k`{\xcbtf\xb1?'
p7896
tp7897
Rp7898
tp7899
a(g4098
g2
(g6
S's\x1f\xdcD\xfd\x93\x8f?'
p7900
tp7901
Rp7902
tp7903
a(g4103
g2
(g6
S'\xd9]3\x08\x92x\xe9?'
p7904
tp7905
Rp7906
tp7907
a(g4108
g2
(g6
S'\x85\x85N`\x1e\xd8\xb5?'
p7908
tp7909
Rp7910
tp7911
a(g4113
g2
(g6
S'r$#\xa9}!\xbc?'
p7912
tp7913
Rp7914
tp7915
a(g4118
g2
(g6
S'M"\x02\xdb\xaf\xa5\xa6?'
p7916
tp7917
Rp7918
tp7919
a(g4123
g2
(g6
S'\xf7\xce\x98\xe4\xa8%\x87?'
p7920
tp7921
Rp7922
tp7923
a(g4128
g2
(g6
S'\xb1\x0e\xddrIc\xca?'
p7924
tp7925
Rp7926
tp7927
a(g4133
g2
(g6
S'\xb4\xab\xacG\xc3\xa4\xb4?'
p7928
tp7929
Rp7930
tp7931
a(g4138
g2
(g6
S'\xcd?g\xc3{\xbd\x90?'
p7932
tp7933
Rp7934
tp7935
a(g4143
g2
(g6
S'\x7fS\xff\xf0X\x8b\xb8?'
p7936
tp7937
Rp7938
tp7939
a(g4148
g2
(g6
S'\x0c?\x7ft\xc6$\xd7?'
p7940
tp7941
Rp7942
tp7943
a(g4153
g2
(g6
S'\xf9K\xf8\x96S1\xb1?'
p7944
tp7945
Rp7946
tp7947
a(g4158
g2
(g6
S'3\xd0\xdd\xf7m]\xbb?'
p7948
tp7949
Rp7950
tp7951
a(g4163
g2
(g6
S'<;\x8dr8\x0c\xc8?'
p7952
tp7953
Rp7954
tp7955
a(g4168
g2
(g6
S'\xae:\xb7x\x94$\xb7?'
p7956
tp7957
Rp7958
tp7959
a(g4173
g2
(g6
S'\xc1\xf4\xdc\x93\x9e!\x92?'
p7960
tp7961
Rp7962
tp7963
a(g4178
g2
(g6
S'%\x08\\\xf9Z\x07\x91?'
p7964
tp7965
Rp7966
tp7967
a(g4183
g2
(g6
S'\x98\x1f\x01\xa1\xcapi?'
p7968
tp7969
Rp7970
tp7971
a(g4188
g2
(g6
S"W*\x08\x1b'P\xa4?"
p7972
tp7973
Rp7974
tp7975
a(g4193
g2
(g6
S'\x1dT;\xf3\r\xad\xc4?'
p7976
tp7977
Rp7978
tp7979
a(g4198
g2
(g6
S'\xc2\xf6\x1c#\x9c\xc0\xa6?'
p7980
tp7981
Rp7982
tp7983
a(g4203
g2
(g6
S'k\x82E\xd1E\xfb\xce?'
p7984
tp7985
Rp7986
tp7987
a(g4208
g2
(g6
S'\x10@\xf8\xbd>T\xa6?'
p7988
tp7989
Rp7990
tp7991
a(g4213
g2
(g6
S'\xb5\xa7\xe9U\x92\xec\xcd?'
p7992
tp7993
Rp7994
tp7995
a(g4218
g2
(g6
S'\x8f|#\x8f\xe7\xc0\xcc?'
p7996
tp7997
Rp7998
tp7999
a(g4223
g2
(g6
S'\xd7\x96b\x90\xb9\x87\xc1?'
p8000
tp8001
Rp8002
tp8003
a(g4228
g2
(g6
S'\xf5\xb4\x8em\xc3\xaf\xc4?'
p8004
tp8005
Rp8006
tp8007
a(g4233
g2
(g6
S'a\x93X\xf95\x17\xd0?'
p8008
tp8009
Rp8010
tp8011
a(g4238
g2
(g6
S'\xed\x04O\xaf\x01\x02\x83?'
p8012
tp8013
Rp8014
tp8015
a(g4243
g2
(g6
S'/\xa7\xc2\xa7R\x16\x9a?'
p8016
tp8017
Rp8018
tp8019
a(g4248
g2
(g6
S'L\x83\xf1\xbf\xd4P\xb3?'
p8020
tp8021
Rp8022
tp8023
a(g4253
g2
(g6
S'\x08\xe3\x05\xe3p~\xab?'
p8024
tp8025
Rp8026
tp8027
a(g4258
g2
(g6
S'H\x83P\xe89En?'
p8028
tp8029
Rp8030
tp8031
a(g4263
g2
(g6
S'B\xae\x0c^\x7f\x88\xb1?'
p8032
tp8033
Rp8034
tp8035
a(g4268
g2
(g6
S'\xda\x92\x80\x91\xca&\x94?'
p8036
tp8037
Rp8038
tp8039
a(g4273
g2
(g6
S'P\xf6\x109\xef\x92\xa7?'
p8040
tp8041
Rp8042
tp8043
a(g4278
g2
(g6
S'z\x94\xfb1n\xe9\xa6?'
p8044
tp8045
Rp8046
tp8047
a(g4283
g2
(g6
S'\xae\xc5A\x1e\xce7\xb9?'
p8048
tp8049
Rp8050
tp8051
a(g4288
g2
(g6
S'c\xa6\xa8\x8b\xf8t\xab?'
p8052
tp8053
Rp8054
tp8055
a(g4293
g2
(g6
S'\xc82\x1biKK\x90?'
p8056
tp8057
Rp8058
tp8059
a(g4298
g2
(g6
S'Av\xb6\xfe\x98\x01\x87?'
p8060
tp8061
Rp8062
tp8063
a(g4303
g2
(g6
S'\x81\xca\xe4\x133t\x8c?'
p8064
tp8065
Rp8066
tp8067
a(g4308
g2
(g6
S'\x9a\x03\xf0\x8e\rV\x9a?'
p8068
tp8069
Rp8070
tp8071
a(g4313
g2
(g6
S'\xf5\xc9f\x1bs/\x80?'
p8072
tp8073
Rp8074
tp8075
a(g4318
g2
(g6
S'U\xc4\x86\xfa\x9ft\xb4?'
p8076
tp8077
Rp8078
tp8079
a(g4323
g2
(g6
S'\x9fD\x14+T\xcb\xc2?'
p8080
tp8081
Rp8082
tp8083
a(g4328
g2
(g6
S'\xd0\x0b5\x12\xban\xc3?'
p8084
tp8085
Rp8086
tp8087
a(g4333
g2
(g6
S'\x03\xa6\x18\x8fn^\xc2?'
p8088
tp8089
Rp8090
tp8091
a(g4338
g2
(g6
S'\xb9q\xfdN\xa2\xe4\xdd?'
p8092
tp8093
Rp8094
tp8095
a(g4343
g2
(g6
S'&\x88\xed\x00\xe5u\xa5?'
p8096
tp8097
Rp8098
tp8099
a(g4348
g2
(g6
S'\xd6\xb4\xa9\xbf\x00p\xc4?'
p8100
tp8101
Rp8102
tp8103
a(g4353
g2
(g6
S'qz\x98o\xddJ\xbc?'
p8104
tp8105
Rp8106
tp8107
a(g4358
g2
(g6
S'\xb6!\xa3\\J\xb8\xca?'
p8108
tp8109
Rp8110
tp8111
a(g4363
g2
(g6
S'r\x80\xaa\x1b9\x1c\x95?'
p8112
tp8113
Rp8114
tp8115
a(g4368
g2
(g6
S'.\t\x85E\x9b\x9c\x7f?'
p8116
tp8117
Rp8118
tp8119
a(g4373
g2
(g6
S'\xfa\xfb_\x8a\x7f\x93\x9a?'
p8120
tp8121
Rp8122
tp8123
a(g4378
g2
(g6
S'\xd5\x0c\x8dMI[\xb8?'
p8124
tp8125
Rp8126
tp8127
a(g4383
g2
(g6
S'FC\x122\x9a\xd9\xc7?'
p8128
tp8129
Rp8130
tp8131
a(g4388
g2
(g6
S'\xb3\x1e\xc6\xbd\\\x98\xd2?'
p8132
tp8133
Rp8134
tp8135
a(g4393
g2
(g6
S'\xd3\xa3\xf5,\x12W\xa5?'
p8136
tp8137
Rp8138
tp8139
a(g4398
g2
(g6
S'\x84\x9d\xa9\xaa\xac\x9a\xd7?'
p8140
tp8141
Rp8142
tp8143
a(g4403
g2
(g6
S'\xd4$d_32\xc4?'
p8144
tp8145
Rp8146
tp8147
a(g4408
g2
(g6
S'\xcb)\xcc>9Q\x95?'
p8148
tp8149
Rp8150
tp8151
a(g4413
g2
(g6
S'\xe1\x8e:\xb1\xbch\xc5?'
p8152
tp8153
Rp8154
tp8155
a(g4418
g2
(g6
S'\xcb\x06\x97c\xb9r\x88?'
p8156
tp8157
Rp8158
tp8159
a(g4423
g2
(g6
S'\x99\xdf\xea\xb2\xf8Jq?'
p8160
tp8161
Rp8162
tp8163
a(g4428
g2
(g6
S'\xba`\xefL\x08 \xb4?'
p8164
tp8165
Rp8166
tp8167
a(g4433
g2
(g6
S'N\xf2\x9fE!\x8f\x91?'
p8168
tp8169
Rp8170
tp8171
a(g4438
g2
(g6
S'\xf4\xc8\x7f~h\xb1\x8b?'
p8172
tp8173
Rp8174
tp8175
a(g4443
g2
(g6
S']\xbar\x8b3e\x8b?'
p8176
tp8177
Rp8178
tp8179
a(g4448
g2
(g6
S'\x05\x02\x86\xad%Y\xa4?'
p8180
tp8181
Rp8182
tp8183
a(g4453
g2
(g6
S'\x119}=_\xb3\xa8?'
p8184
tp8185
Rp8186
tp8187
a(g4458
g2
(g6
S'\xcf~\x8b\xebk\x9f\xa4?'
p8188
tp8189
Rp8190
tp8191
a(g4463
g2
(g6
S'\xdd\x1b\xae\x9bsl\xa4?'
p8192
tp8193
Rp8194
tp8195
a(g4468
g2
(g6
S'X\xab\t\xb1\x19\xb1\xb4?'
p8196
tp8197
Rp8198
tp8199
a(g4473
g2
(g6
S'\xd2\xd3\xf9P\x9f\xed\xc7?'
p8200
tp8201
Rp8202
tp8203
a(g4478
g2
(g6
S'\xd9l\xcb\xd1\xfaS\xdd?'
p8204
tp8205
Rp8206
tp8207
a(g4483
g2
(g6
S'7\x88\x80\x8a}\xde\xb1?'
p8208
tp8209
Rp8210
tp8211
a(g4488
g2
(g6
S'\x93\xca#\x9e=\xae\xbe?'
p8212
tp8213
Rp8214
tp8215
a(g4493
g2
(g6
S':d\x05\xea\x8d\x8d\xb1?'
p8216
tp8217
Rp8218
tp8219
a(g4498
g2
(g6
S'\xc2\xaa\xd5\xb2\x10x[?'
p8220
tp8221
Rp8222
tp8223
a(g4503
g2
(g6
S'\x11\x1c\xd9\x8d%I\xa0?'
p8224
tp8225
Rp8226
tp8227
a(g4508
g2
(g6
S':\x93\x10\x8eT=\xa1?'
p8228
tp8229
Rp8230
tp8231
a(g4513
g2
(g6
S'`H\xec\xb2\x16\xa1\xa4?'
p8232
tp8233
Rp8234
tp8235
a(g4518
g2
(g6
S'e\x94\xab{\x0b\xbb\xd6?'
p8236
tp8237
Rp8238
tp8239
a(g4523
g2
(g6
S'\x1el`\x94h\x15\x9c?'
p8240
tp8241
Rp8242
tp8243
a(g4528
g2
(g6
S'Y\xd3s\r^\xb4\xc5?'
p8244
tp8245
Rp8246
tp8247
a(g4533
g2
(g6
S'Cg\xe8\x8b\xfc{\x8a?'
p8248
tp8249
Rp8250
tp8251
a(g4538
g2
(g6
S'\xe5\xf9FS\xc1\xd1\x97?'
p8252
tp8253
Rp8254
tp8255
a(g4543
g2
(g6
S'\xd2H\xfdU}7\xa8?'
p8256
tp8257
Rp8258
tp8259
a(g4548
g2
(g6
S'\xa2\xf1y\x02\xb7\xa7A?'
p8260
tp8261
Rp8262
tp8263
a(g4553
g2
(g6
S'\x1c\x1f\xc8\xa22\xc3\xad?'
p8264
tp8265
Rp8266
tp8267
a(g4558
g2
(g6
S'\xb5\xe2KC\xb5\n\xa9?'
p8268
tp8269
Rp8270
tp8271
a(g4563
g2
(g6
S'U\x0ee\\\xfcc]?'
p8272
tp8273
Rp8274
tp8275
a(g4568
g2
(g6
S"uG'\x94\x83\xae\xa5?"
p8276
tp8277
Rp8278
tp8279
a(g4573
g2
(g6
S'\xad\x13\xd4F.e\x88?'
p8280
tp8281
Rp8282
tp8283
a(g4578
g2
(g6
S'\xec\x0e\xa8\x852W\x95?'
p8284
tp8285
Rp8286
tp8287
a(g4583
g2
(g6
S'\xbcJ-J\xbf3\xac?'
p8288
tp8289
Rp8290
tp8291
a(g4588
g2
(g6
S'C\x08D_\xac5\xcd?'
p8292
tp8293
Rp8294
tp8295
a(g4593
g2
(g6
S'\xd6\x97\x98s\x98K\xa3?'
p8296
tp8297
Rp8298
tp8299
a(g4598
g2
(g6
S'\xf9\x13\x9a\xc6$\x93\xcb?'
p8300
tp8301
Rp8302
tp8303
a(g4603
g2
(g6
S'\xcaw\xd5u;*\xda?'
p8304
tp8305
Rp8306
tp8307
a(g4608
g2
(g6
S'5b\x9b\x91\x97\xce\xd3?'
p8308
tp8309
Rp8310
tp8311
a(g4613
g2
(g6
S'\x15\x18x\x0fLE\x95?'
p8312
tp8313
Rp8314
tp8315
a(g4618
g2
(g6
S'\x1fn8@\xf1\xe2\x95?'
p8316
tp8317
Rp8318
tp8319
a.