(lp0
(VTTTAAAGCGATTGCTAGGCC
p1
cnumpy.core.multiarray
scalar
p2
(cnumpy
dtype
p3
(S'f8'
p4
I0
I1
tp5
Rp6
(I3
S'<'
p7
NNNI-1
I-1
I0
tp8
bS'2\x90\x1b\t*\xc6\xd2?'
p9
tp10
Rp11
tp12
a(VAGGAGGAACTGATGATGGCA
p13
g2
(g6
S'eS\xb8b\xa2h\xbb?'
p14
tp15
Rp16
tp17
a(VAGTGCCACTCCAGAGGATTC
p18
g2
(g6
S'j\x07\xda\x1fS\xb7\xb5?'
p19
tp20
Rp21
tp22
a(VTCTATTCAAGCAAAAATATG
p23
g2
(g6
S'\x17\x9e/\xa7\x18\xe8\xd2?'
p24
tp25
Rp26
tp27
a(VCTGTTTCCGCCACCTCTGTG
p28
g2
(g6
S'\x03\x00\x8d\xf3\xb3\xe8\xc6?'
p29
tp30
Rp31
tp32
a(VACACACTTCGAAGTTGAGGG
p33
g2
(g6
S'p\xff\x06\xf7G\xbb\xea?'
p34
tp35
Rp36
tp37
a(VGCTTTAAAGTCAGTAAGACA
p38
g2
(g6
S'\x99\x92\x8emw\x01\xdd?'
p39
tp40
Rp41
tp42
a(VTGGCCCTGTACATGTTTCTG
p43
g2
(g6
S'\xcc\xf3x\x0b8\x0c\xb4?'
p44
tp45
Rp46
tp47
a(VGTGACAGTTCCCAGCGGGTC
p48
g2
(g6
S'Zo\x85\xc4\xfe1\x93?'
p49
tp50
Rp51
tp52
a(VTGAACTGGTTCTCATCTACT
p53
g2
(g6
S'\xe2\xa5\xad\xa7\xdcx\xd8?'
p54
tp55
Rp56
tp57
a(VGAGGTGGCGGAAACAGGACA
p58
g2
(g6
S'\xf6\xff2^A\xfa\xd4?'
p59
tp60
Rp61
tp62
a(VGACAATCAGATGCTATATCA
p63
g2
(g6
S'}\xe2\xc6N\xf4\xd0\xa0?'
p64
tp65
Rp66
tp67
a(VTTAGAAAGACTGATTGCCCT
p68
g2
(g6
S"'\x89\x80\x9ea\xa5\xd3?"
p69
tp70
Rp71
tp72
a(VGTACAGCAGAATTAATTACA
p73
g2
(g6
S'\xb3>d\x18\x17\xc1\xe5?'
p74
tp75
Rp76
tp77
a(VTGCAGAAAAGCTATTTGACT
p78
g2
(g6
S'\x07b\xd9\xcc!\xa9\x8d?'
p79
tp80
Rp81
tp82
a(VAGAAAGTAACAACGTGGAAG
p83
g2
(g6
S't\x1a\xde\xb63\xef\xd4?'
p84
tp85
Rp86
tp87
a(VACAGTTATAGATATAGACTG
p88
g2
(g6
S'\x1d\xfb\xf9\xb9\x18\xd8\xe5?'
p89
tp90
Rp91
tp92
a(VAAACAGACTTTCTCTCTAAG
p93
g2
(g6
S'\xc5\xfd\x7fP\xa2\xfb\xd1?'
p94
tp95
Rp96
tp97
a(VACTTATAGCTTCTTGTCTCC
p98
g2
(g6
S'\xdeP!\xecNV\xa8?'
p99
tp100
Rp101
tp102
a(VTAGAGCTTCCACACATGGAC
p103
g2
(g6
S'\xb0\xb5\xa3\xaa\x9cE\xcd?'
p104
tp105
Rp106
tp107
a(VTTGTTCTACAAATTGAGTAT
p108
g2
(g6
S'\xdf\x98h\x07\x91\xc9\xbf?'
p109
tp110
Rp111
tp112
a(VGGTGGAACTGGTCACAATGA
p113
g2
(g6
S'\xb9\xeaX\xaa\xad\x06\xcd?'
p114
tp115
Rp116
tp117
a(VGGGCCACTTCTAGTTTGGTC
p118
g2
(g6
S'\xb99\xeb\x0c\xb9=\x94?'
p119
tp120
Rp121
tp122
a(VGGACATTCGCCTCTTAACAA
p123
g2
(g6
S'\xa7%\xacF\xdc\xa7\xe4?'
p124
tp125
Rp126
tp127
a(VCTTAGGCCACCAATCCAATG
p128
g2
(g6
S'\xc2;\xcb\xbc\xed\xd3\xdb?'
p129
tp130
Rp131
tp132
a(VAAAGCCATATGAAATTGTAG
p133
g2
(g6
S'\xe8)\xa0\xc0\xa3\x1c\xd2?'
p134
tp135
Rp136
tp137
a(VGTGTGTAACCATGAGAAAGT
p138
g2
(g6
S'Bc|Q\xe8 \xca?'
p139
tp140
Rp141
tp142
a(VAGAGCCTTGAGGAAAACCAG
p143
g2
(g6
S'^\r\xff\xd2j4\xea?'
p144
tp145
Rp146
tp147
a(VTTGAGGGGGGAATTCTGAGG
p148
g2
(g6
S'y$m\xc9\xfb\xcf\xb7?'
p149
tp150
Rp151
tp152
a(VCTTGTGTCCAGAAATAATCC
p153
g2
(g6
S'i{.2\x85w\xb2?'
p154
tp155
Rp156
tp157
a(VAGCACATAGTGAAATGTAGA
p158
g2
(g6
S'(\\/P\xc9n\xc2?'
p159
tp160
Rp161
tp162
a(VCAAGCTGGGACTTCCAAAGC
p163
g2
(g6
S'\x92\r\x9c\x1a\x05\x14l?'
p164
tp165
Rp166
tp167
a(VTCCGGATATGAATGATAGAC
p168
g2
(g6
S'\xf7\xbf\xaf\xd3@\xda\xab?'
p169
tp170
Rp171
tp172
a(VTAAAGAAAAACCTACAGACC
p173
g2
(g6
S'\x10/d\x82\xd5\xe9\x98?'
p174
tp175
Rp176
tp177
a(VATTAATGACCAGTCCATGTG
p178
g2
(g6
S'\xaep|\x01~\x8c\xb5?'
p179
tp180
Rp181
tp182
a(VAATCCACTTACCTATAGGAA
p183
g2
(g6
S'\x1dgB\xaf\x19\x02\xcc?'
p184
tp185
Rp186
tp187
a(VGTAACAACGTGGAAGAGGTA
p188
g2
(g6
S'\xc2=\xd1\xa0a\xf4\xe6?'
p189
tp190
Rp191
tp192
a(VTCCATGCAGACTCTCTTCCG
p193
g2
(g6
S'\xcb\xf7\x96\xb6\xdb\x95\xcb?'
p194
tp195
Rp196
tp197
a(VTGACATCATATTGCTGACAG
p198
g2
(g6
S'\xe0\x18\xa4\x0eb\x8f\xd4?'
p199
tp200
Rp201
tp202
a(VGGGCTGTGACAGTTCCCAGC
p203
g2
(g6
S'\xb5\xa8\xc6\x80)\xd9\xc6?'
p204
tp205
Rp206
tp207
a(VGGTTCCACAGAAACATGTAC
p208
g2
(g6
S'p \xd3\xc3\x98\xc0\xd0?'
p209
tp210
Rp211
tp212
a(VCATGTTGATCCATTCCTGTA
p213
g2
(g6
S'\x02\x8d\xb3\x98\xc1 \xd1?'
p214
tp215
Rp216
tp217
a(VAAGCCCCTTTCGATTCTAGG
p218
g2
(g6
S'\\\x13\x126*\x9a\xda?'
p219
tp220
Rp221
tp222
a(VTTCTGACCCGAGTTTACGGT
p223
g2
(g6
S'\xf1\x1a\xaa\x18\x9d\x12\xe3?'
p224
tp225
Rp226
tp227
a(VGGAAGCAGATATCCGGTGTG
p228
g2
(g6
S']\x9ed1\x05y\xc3?'
p229
tp230
Rp231
tp232
a(VGTTTGGAATACATGACTCCA
p233
g2
(g6
S'\x0c\xd9\x9c*\xaf\xba\xcf?'
p234
tp235
Rp236
tp237
a(VAATAGCATTGGATACAGAGC
p238
g2
(g6
S'\xf7\xeb\xc0\xcc\x86\x9b\xb8?'
p239
tp240
Rp241
tp242
a(VTGGCAGGATTGATAAATCTG
p243
g2
(g6
S'N\xab\xc5\x00\xb9\xdf\xcb?'
p244
tp245
Rp246
tp247
a(VCAATACACAGCATCAATCTT
p248
g2
(g6
S'&\xf7s\xbecn\xa7?'
p249
tp250
Rp251
tp252
a(VAATATCGCATTACTTAATTT
p253
g2
(g6
S'\xd2\xd57\xdfq\xd2\xbe?'
p254
tp255
Rp256
tp257
a(VCTCGTCGAAGCGGCTGACCA
p258
g2
(g6
S':\x11\x04\x95\xdf\xcc\xc2?'
p259
tp260
Rp261
tp262
a(VCCACCATGGACTGAACAAGT
p263
g2
(g6
S'p\x99\xd8\x1e\xeb\x99\xba?'
p264
tp265
Rp266
tp267
a(VAGTCTACGAAAAGCTCTTGC
p268
g2
(g6
S'\x8b\xf0Eg\xd8)\xb9?'
p269
tp270
Rp271
tp272
a(VATTGATAAATCTGAGGAACA
p273
g2
(g6
S'\x80\xe3\xdf%@f\xb0?'
p274
tp275
Rp276
tp277
a(VATCTCTGGCATGTGTGACTG
p278
g2
(g6
S'\xa6\xac2\x95vQ\xa9?'
p279
tp280
Rp281
tp282
a(VAGCCACCACCTAGAATCGAA
p283
g2
(g6
S'i\xe8\x83\x8b3\xcb\xc2?'
p284
tp285
Rp286
tp287
a(VGGGCTTGAAGTTAATGTCAA
p288
g2
(g6
S'\x83\xc3W\xb0\x97\xea\xc0?'
p289
tp290
Rp291
tp292
a(VTTACCAGCCATATCAGTCTG
p293
g2
(g6
S'?M\xcd\xe8\xbe\xd1\xd3?'
p294
tp295
Rp296
tp297
a(VTTACATTGGTGATGATTCGA
p298
g2
(g6
S'\xc7\x9b\xa1]*\xdb\xa8?'
p299
tp300
Rp301
tp302
a(VTTGGCCGAATCTTGGTGTGT
p303
g2
(g6
S'\xe0\x8c\x97\xf7\x03\xe1|?'
p304
tp305
Rp306
tp307
a(VACATGAAAAAGAAGAATTCA
p308
g2
(g6
S'(b\xf0\xb4%@\x9d?'
p309
tp310
Rp311
tp312
a(VCTTCTTGTCTCCAGGTCTGT
p313
g2
(g6
S'\xd7\xc7\xc9\x18\xad\x90\xd0?'
p314
tp315
Rp316
tp317
a(VTCAATTAGTTGAAGTAATGA
p318
g2
(g6
S'\xb8\x99\x95\xe3\xd1j\xb3?'
p319
tp320
Rp321
tp322
a(VAGTTTGAGGAATTTATGACT
p323
g2
(g6
S'b\x9d\x92\xc2\xa8\xe3\x98?'
p324
tp325
Rp326
tp327
a(VCTGACAAAAATCCTTCAACA
p328
g2
(g6
S'.@\x87kH\xeb\xb3?'
p329
tp330
Rp331
tp332
a(VACTTCGGAATTCTGCCTCTG
p333
g2
(g6
S'\xc2\xab\xe2\x16\xbe\x01\xb8?'
p334
tp335
Rp336
tp337
a(VCACATCAAGGGAATTGTTGA
p338
g2
(g6
S'j\xd4*\x97\x19x\xa4?'
p339
tp340
Rp341
tp342
a(VTGAAGGTGAGCGGCGTGCCC
p343
g2
(g6
S'\x0c\xban^]\x14\xb7?'
p344
tp345
Rp346
tp347
a(VATGAATGATAGACTGGACAA
p348
g2
(g6
S'"OAg\x9a\xfc\xbb?'
p349
tp350
Rp351
tp352
a(VTAGTAATTCTTCATGATCCA
p353
g2
(g6
S'8xO\xb3zF\xd7?'
p354
tp355
Rp356
tp357
a(VTATCTATAACTGTAACTCCT
p358
g2
(g6
S'\xc7\x86\xc4\xf6\xc0\xb2\xcc?'
p359
tp360
Rp361
tp362
a(VCGGCGTGCCCTGGTTTGCAA
p363
g2
(g6
S'\xdf\xbfI8\xcc\x0e\xc8?'
p364
tp365
Rp366
tp367
a(VAAATTAAAACGACTCCTGAA
p368
g2
(g6
S'\xd2\xbb>\x94\xe4\xf0\xd0?'
p369
tp370
Rp371
tp372
a(VGAGTCATGTATTCCAAACAA
p373
g2
(g6
S'\xaa\x97\x12[\xd7\xae\xd9?'
p374
tp375
Rp376
tp377
a(VTTAGCAAACGAGTGTCTCAT
p378
g2
(g6
S'\xc7c>\xd4A\xb4\xd4?'
p379
tp380
Rp381
tp382
a(VTGTGTGCCACTGTTTATACC
p383
g2
(g6
S'_|"f.\xa4\xd3?'
p384
tp385
Rp386
tp387
a(VTGATCGGTTTGAGAGATTGG
p388
g2
(g6
S'\xeb\x1di\xce\xcc\\\xcc?'
p389
tp390
Rp391
tp392
a(VAGAACCATCAGAGAGCCTTG
p393
g2
(g6
S'Jcm\xb9\x1e\x18\xdc?'
p394
tp395
Rp396
tp397
a(VAGTAACAACGTGGAAGAGGT
p398
g2
(g6
S'\x1d\x93g\x8cF\xa6\xb7?'
p399
tp400
Rp401
tp402
a(VGTTCCACAGAAACATGTACA
p403
g2
(g6
S'M0\x80\x16iw\xe2?'
p404
tp405
Rp406
tp407
a(VTCGTTGATCAAACTCATCTG
p408
g2
(g6
S'\xd7\x07\x06\xce!B\xd2?'
p409
tp410
Rp411
tp412
a(VAGAGATTGCTCAGGAAGCAA
p413
g2
(g6
S'\xd2\xfc};\x93:\xd8?'
p414
tp415
Rp416
tp417
a(VGAGATTAGATGAAACGATGC
p418
g2
(g6
S'}\x08m\xe3\x96)\xb2?'
p419
tp420
Rp421
tp422
a(VAGCCAAAATGGAAGATGGCC
p423
g2
(g6
S'h\x13\x16\xcb\xe3\x1f\xb1?'
p424
tp425
Rp426
tp427
a(VAAGTTGAGGGGGGAATTCTG
p428
g2
(g6
S'\xddC\t\xcd\x8a\xb5\xb2?'
p429
tp430
Rp431
tp432
a(VGCCCTGGTTTGCAATGGTTA
p433
g2
(g6
S'E\x8a\xc9g\xee+\xbd?'
p434
tp435
Rp436
tp437
a(VCAGGAATGGATCAACATGAC
p438
g2
(g6
S'\x1eoZ?\xe9\x83\x90?'
p439
tp440
Rp441
tp442
a(VCTCTGCACAAAGCCCTCTTT
p443
g2
(g6
S'\x10\xff\t^\x8f\xea\x8d?'
p444
tp445
Rp446
tp447
a(VCTTCCAAAAATTCTAACGTG
p448
g2
(g6
S'\x07q43rw\xd4?'
p449
tp450
Rp451
tp452
a(VGAGCTAGCTTGAGAGCATTG
p453
g2
(g6
S'\xc0r\x03\x8c\xce\\\xd1?'
p454
tp455
Rp456
tp457
a(VGAACCTTTGGGAGAGGACCA
p458
g2
(g6
S'z\xa7\xac\xed\xc05\xd5?'
p459
tp460
Rp461
tp462
a(VAGTGGACAGAACTAGCTCAA
p463
g2
(g6
S'H\xa1\x1dQP3\xd7?'
p464
tp465
Rp466
tp467
a(VGCAGTTCTGACCCGAGTTTA
p468
g2
(g6
S'?h\xa8\x17\x9d\xe8\xd9?'
p469
tp470
Rp471
tp472
a(VGGACAATGGCTTCACACTCC
p473
g2
(g6
S'-\x99\x93\xb2m\x9a\x90?'
p474
tp475
Rp476
tp477
a(VTTCGCTCTGCTGAAGTTACT
p478
g2
(g6
S'\xb3a\xea:\x96/\xc1?'
p479
tp480
Rp481
tp482
a(VAGCACTTCAGAAAAGAGTGA
p483
g2
(g6
S'\xffs&\xdaF\x9d\xdf?'
p484
tp485
Rp486
tp487
a(VAAAAAACCTACCGTAAACTC
p488
g2
(g6
S'\xb97R\xc5s\x07\xc0?'
p489
tp490
Rp491
tp492
a(VTTCACACTCCTGGTGCATGA
p493
g2
(g6
S'\x16V_\x9ax\x00\xcd?'
p494
tp495
Rp496
tp497
a(VGAAACTACCTGCTGCCACCT
p498
g2
(g6
S'\xba\x8f\x88\x9b\xe6,\xaf?'
p499
tp500
Rp501
tp502
a(VACCAATGTTAAGGATCTGGT
p503
g2
(g6
S'\xfc\xa3?\x99\x1e\xcb\xcd?'
p504
tp505
Rp506
tp507
a(VGTTGTGCTCAGTACTGACTT
p508
g2
(g6
S'h\xa5\x0e\xc7\xfa\x93\xd5?'
p509
tp510
Rp511
tp512
a(VTAGTGGACCTTACCCATACC
p513
g2
(g6
S'+\xfa\xbaA\xf1\xf9\xc7?'
p514
tp515
Rp516
tp517
a(VTAACTGTAACTCCTGGGTCA
p518
g2
(g6
S'\xbfG\xf8<Q\xa2\xb1?'
p519
tp520
Rp521
tp522
a(VCGCGCACAGGCCGGTGGAAT
p523
g2
(g6
S'\xfa\xab\xe6\x8ai\xde}?'
p524
tp525
Rp526
tp527
a(VAACCTGTGGCAGATACACAC
p528
g2
(g6
S'= \xdd\xc3\xb6i\xc4?'
p529
tp530
Rp531
tp532
a(VGATTGCTCAGGAAGCAATGG
p533
g2
(g6
S'\x06]\xfaK\x16M\xde?'
p534
tp535
Rp536
tp537
a(VTACTAATAGAGACAATAAAG
p538
g2
(g6
S'\xe8\x99\x87\xe1]\xcd\xce?'
p539
tp540
Rp541
tp542
a(VCCAAAGACAACAAGAGCTCT
p543
g2
(g6
S'\x12\xf2\x9f@h\xd5\xaa?'
p544
tp545
Rp546
tp547
a(VATAAGGAGAATGATTTGTAG
p548
g2
(g6
S'<\x96\xcf\xd6\xe7\x08\xd7?'
p549
tp550
Rp551
tp552
a(VATTGCTTCCTGAGCAATCTC
p553
g2
(g6
S'3\xa9>\xe3\x04^\xc2?'
p554
tp555
Rp556
tp557
a(VTTCTACATTTCACTATGTGC
p558
g2
(g6
S'\x00\x12\xed-\\\x8b\xb4?'
p559
tp560
Rp561
tp562
a(VTTGCAATGGTTAAGGTGAAC
p563
g2
(g6
S'\xf9g\xbf\x1b\xf6n\x8c?'
p564
tp565
Rp566
tp567
a(VTCTAAAGCCAAGGTGGCAGC
p568
g2
(g6
S'\x03\xb59J5\xbe\xd2?'
p569
tp570
Rp571
tp572
a(VGTGTGTTGGGGGATAGAGTC
p573
g2
(g6
S'E!Cs\x0f\x9c\xa7?'
p574
tp575
Rp576
tp577
a(VCCACCACCTAGAATCGAAAG
p578
g2
(g6
S':\x90\x16\xe3\xd3N\xde?'
p579
tp580
Rp581
tp582
a(VAGTCAGTACTGAGCACAACA
p583
g2
(g6
S'\xac\xad.`/\xb8\xce?'
p584
tp585
Rp586
tp587
a(VCAGGCCGGTGGAATGGGTCC
p588
g2
(g6
S'\x8ek\x04a\xf5\xe7\x93?'
p589
tp590
Rp591
tp592
a(VATTAGGCTTAGGTTACCACA
p593
g2
(g6
S'\x03\xd7\x96\xb3\xd7\xf8\xd6?'
p594
tp595
Rp596
tp597
a(VCTGGCCGACAGTTGGATAGG
p598
g2
(g6
S'\r\x19nD ,\xa4?'
p599
tp600
Rp601
tp602
a(VTCATTCATATCCGGACCCGC
p603
g2
(g6
S'\xfaO\x9c{\xc6\xe0\xd4?'
p604
tp605
Rp606
tp607
a(VCTACTAAGAAAGTAACAACG
p608
g2
(g6
S'\xbcD\xa1\xd72\xf8\xeb?'
p609
tp610
Rp611
tp612
a(VTGGTAGAATACCTGACAGAC
p613
g2
(g6
S'\x9bo5\xcc\x7f1\x95?'
p614
tp615
Rp616
tp617
a(VGAAGATGAGCTGCCACATCA
p618
g2
(g6
S'\xc8\x8b$\xf8\xe1K\x9d?'
p619
tp620
Rp621
tp622
a(VGTGGAACTGGTCACAATGAT
p623
g2
(g6
S'P{\xdf2\x86}\xd1?'
p624
tp625
Rp626
tp627
a(VTCATACGGTGAGACAATGGC
p628
g2
(g6
S'\x98\xeesQ4\\\xe2?'
p629
tp630
Rp631
tp632
a(VCCACGTCTTTGGATATATCC
p633
g2
(g6
S'1\xecL{,x\xa3?'
p634
tp635
Rp636
tp637
a(VGCCGAATCTTGGTGTGTTGG
p638
g2
(g6
S'\xe7\x0cC\xe6\xf5\xa0\xc0?'
p639
tp640
Rp641
tp642
a(VTACCTTAAGATCAACCACCA
p643
g2
(g6
S'K\xe0\xb8\x87\xe2\xa0\xc7?'
p644
tp645
Rp646
tp647
a(VTGTGGTTCCTTGTTCTCAGT
p648
g2
(g6
S'D>\xea\xda\xd7\xd4\xd5?'
p649
tp650
Rp651
tp652
a(VATGCTCTCACCTTAAAGTGT
p653
g2
(g6
S'\x18q\x04 #}\xd8?'
p654
tp655
Rp656
tp657
a(VATTGTTACAGTATATCAATG
p658
g2
(g6
S'\xdd\xa9b%Dk\xd3?'
p659
tp660
Rp661
tp662
a(VACTGCACCGATGCTGTTCTG
p663
g2
(g6
S'\x88\xc5\x08\xde\x19x\xd3?'
p664
tp665
Rp666
tp667
a(VCCTACTTGTTCAGTCCATGG
p668
g2
(g6
S'\x12\xcb=\x8f\x17\xf3\xdf?'
p669
tp670
Rp671
tp672
a(VTGTGTGACTGAGGGACCAGT
p673
g2
(g6
S'\xc3\xa8\tz&6\xe5?'
p674
tp675
Rp676
tp677
a(VATCCCACAGACTGATATGGC
p678
g2
(g6
S'g\xd9\x14A\xfc\xf9\xb1?'
p679
tp680
Rp681
tp682
a(VTTATTTCTGGACACAAGATA
p683
g2
(g6
S'\xd7e\xcd\xcf\xda\xdb\xc8?'
p684
tp685
Rp686
tp687
a(VTGCTAGGCCCGGTATGGGTA
p688
g2
(g6
S'\xeeq \xd0\x0b\n\xa0?'
p689
tp690
Rp691
tp692
a(VCGGGCTGTGACAGTTCCCAG
p693
g2
(g6
S'\x86A\xb7\x9c\xedO\xe3?'
p694
tp695
Rp696
tp697
a(VTACCTATCTACAAAAACTCC
p698
g2
(g6
S'V#Q\xee\x92\xc6\xa5?'
p699
tp700
Rp701
tp702
a(VCCATGGAATTGTGCAGAGTG
p703
g2
(g6
S'\xb4k\xf9\x83\xac\xe7\xbb?'
p704
tp705
Rp706
tp707
a(VATTCGGCCAAAAGATGTCCC
p708
g2
(g6
S'\xcf\xa1<\x8eGr\xbe?'
p709
tp710
Rp711
tp712
a(VGGTAGAATACCTGACAGACT
p713
g2
(g6
S'\n\xee\xc3\x1e3\x00\xcb?'
p714
tp715
Rp716
tp717
a(VTGCATCTTGGCAGGCTACAC
p718
g2
(g6
S'\xc0\xe8\xe3\xbbCs\xad?'
p719
tp720
Rp721
tp722
a(VACACATGCCAGAGATTGCTC
p723
g2
(g6
S'\xaa\xb6\xbc\xee\x84\x89\xc3?'
p724
tp725
Rp726
tp727
a(VGCAGCCACCTATCCAACTGT
p728
g2
(g6
S'wH\xdb?\xe9\xe0\xe1?'
p729
tp730
Rp731
tp732
a(VACTGGAAAAATGTCTTGCTG
p733
g2
(g6
S'\xf5,$:\xad\x96\xcb?'
p734
tp735
Rp736
tp737
a(VTTGCCTTCCGTTCCAGTTAC
p738
g2
(g6
S')\xd2N\xe4\x81\xfc\xbc?'
p739
tp740
Rp741
tp742
a(VCGAAGCGGCTGACCACGGCC
p743
g2
(g6
S'\xa5D\x82\x11JK\xba?'
p744
tp745
Rp746
tp747
a(VTTGTCTCACCGTATGAAGCA
p748
g2
(g6
S'` 3\x10\xfeW\xe1?'
p749
tp750
Rp751
tp752
a(VCAGGTCCTCTTCTAAAGCCA
p753
g2
(g6
S'\x04&!\xa5\x9ax\xdc?'
p754
tp755
Rp756
tp757
a(VGTTGATTATATTGGATACAC
p758
g2
(g6
S'\x96\x02L\xc58R\xc0?'
p759
tp760
Rp761
tp762
a(VGAGCATTGTGGAATACCTTC
p763
g2
(g6
S'\ti\xe6\xf9n\xbb\xd4?'
p764
tp765
Rp766
tp767
a(VCAGCCACAGCTACCCAAAAG
p768
g2
(g6
S'\xa2\x85\xf7a,o\xbe?'
p769
tp770
Rp771
tp772
a(VCATTCATATCCGGACCCGCT
p773
g2
(g6
S'8n$\x155\x14\xd1?'
p774
tp775
Rp776
tp777
a(VTGGCACACACTTCGAAGTTG
p778
g2
(g6
S'N#\xcd"\x8bi\xae?'
p779
tp780
Rp781
tp782
a(VAGTTAGATAGCATTGATTTG
p783
g2
(g6
S'd;\x93\xc1G\x80\xc6?'
p784
tp785
Rp786
tp787
a(VGCAACTTTGATGCAGCACGC
p788
g2
(g6
S'`\xcb\xe4\x01P\x88\xe4?'
p789
tp790
Rp791
tp792
a(VGCAGAGCGAACAAAAGTCCT
p793
g2
(g6
S'\x1e\x8di\xc4\xd1\xd7\xda?'
p794
tp795
Rp796
tp797
a(VTGAATGGGATATGTATCCAT
p798
g2
(g6
S'u\xa1pxl\x04\xd5?'
p799
tp800
Rp801
tp802
a(VCACACACTTCGAAGTTGAGG
p803
g2
(g6
S'2\xbc\x82\x02)\x90\xb3?'
p804
tp805
Rp806
tp807
a(VGGACAGCAGTAGAACCAACC
p808
g2
(g6
S'\x8a\x9f\xdbXD\xa5\xc8?'
p809
tp810
Rp811
tp812
a(VTCTAGTCCGCATTGGATTGG
p813
g2
(g6
S'E\xab\xe1\xc2\x84\xc8\xbd?'
p814
tp815
Rp816
tp817
a(VACCCACCAGATCCTTAACAT
p818
g2
(g6
S'\xa8\x84\xb8V\xa1_\xcb?'
p819
tp820
Rp821
tp822
a(VGAAGGCAGCTCTGAACATCT
p823
g2
(g6
S'w^Xn\xd1\x18\x9f?'
p824
tp825
Rp826
tp827
a(VAGTTATAAATAGCCTGGAAA
p828
g2
(g6
S'5\xe7\xf2|\x8c\r\xb5?'
p829
tp830
Rp831
tp832
a(VAAGCTATTTGACTTGGTGGA
p833
g2
(g6
S'j\xae\x8et\xeap\xbe?'
p834
tp835
Rp836
tp837
a(VATGTGGTTCCTTGTTCTCAG
p838
g2
(g6
S'Du\x96\x00\xcc\xda\xda?'
p839
tp840
Rp841
tp842
a(VGGCTTTAGAAGAGGACCTGA
p843
g2
(g6
S'\x17nc-\xea\xa5\xd7?'
p844
tp845
Rp846
tp847
a(VTTATCTTTAATAGAGTCCAG
p848
g2
(g6
S'\xbc\xf8\xbc\x91b\xb8\xeb?'
p849
tp850
Rp851
tp852
a(VGCTAACATGTTGCCAATCAG
p853
g2
(g6
S'\xd1\xd9\xd9\xc2\xb9\xd7\xe7?'
p854
tp855
Rp856
tp857
a(VTTTGAGCTAGTTCTGTCCAC
p858
g2
(g6
S'\x08\xc6@%Nq\xda?'
p859
tp860
Rp861
tp862
a(VTAACTGCGCAACCTTCTTTA
p863
g2
(g6
S'\x94N\xd8\t%\xcf\xcc?'
p864
tp865
Rp866
tp867
a(VGCGATATTGAGCAGTGTCCC
p868
g2
(g6
S'\x0b\xd8\xd1\xe2\xd36\xb3?'
p869
tp870
Rp871
tp872
a(VGGAGACTATCTAAAGTATGC
p873
g2
(g6
S'O\x81\xef\xdd\xb6\x14\xc8?'
p874
tp875
Rp876
tp877
a(VTAAAGAGGGTGTTGTTGGCA
p878
g2
(g6
S'\xaa\xcf\xa5\x1d\xd6\xd2\x8e?'
p879
tp880
Rp881
tp882
a(VCGTGCAAGTGGCTGGACCAG
p883
g2
(g6
S'\x19`\xafH\xfd\x89\xb7?'
p884
tp885
Rp886
tp887
a(VAAATTCCTCAAACTTTGAAC
p888
g2
(g6
S'\x1b\xc2\xad\x92\xfax\xb4?'
p889
tp890
Rp891
tp892
a(VGGTGTGTAACCATGAGAAAG
p893
g2
(g6
S'\x80\xfe\x15\x0e\x91\x0e\xb5?'
p894
tp895
Rp896
tp897
a(VTTGCTGGCCATGGAGGAAGT
p898
g2
(g6
S'j\r@\xcb<w\xc7?'
p899
tp900
Rp901
tp902
a(VTCCCTTAGAGCTTCCACACA
p903
g2
(g6
S'K\xa9\x83p\x90\x86\xb4?'
p904
tp905
Rp906
tp907
a(VCAGTTGGATAGGTGGCTGCA
p908
g2
(g6
S'\x81\x1a\xaa\xa1\x8e\xc0\xb0?'
p909
tp910
Rp911
tp912
a(VTGCAGAATCCAAGAAAACAG
p913
g2
(g6
S'\xf9\xba\xb6\xfe0\xfe\xe8?'
p914
tp915
Rp916
tp917
a(VTCCCACTGCAGGAAACACTG
p918
g2
(g6
S'/E\x03\xc2\x98\xee\xe0?'
p919
tp920
Rp921
tp922
a(VGCACACACTTCGAAGTTGAG
p923
g2
(g6
S'\x17r\x90\x03\xbb\xe9\xdd?'
p924
tp925
Rp926
tp927
a(VACTCCCTATAGCGATGGCTC
p928
g2
(g6
S'\x86"Y\x97\x85<\xb2?'
p929
tp930
Rp931
tp932
a(VCGAACTAGATTTGACAGCCA
p933
g2
(g6
S'\x15\xe0\x02\xa3\xa7\xd5\xcf?'
p934
tp935
Rp936
tp937
a(VGGCACACACTTCGAAGTTGA
p938
g2
(g6
S'\xd4\xd8\xdf\x8b\x8f\xcc\xc1?'
p939
tp940
Rp941
tp942
a(VATCATGGTGACCCTTCCTAT
p943
g2
(g6
S'G\xecM\xeb\xba\xc0\xda?'
p944
tp945
Rp946
tp947
a(VTAACGTGAGGTGTGGCTCAT
p948
g2
(g6
S'\xfc:O\xc0\x9f\xaf\xa6?'
p949
tp950
Rp951
tp952
a(VGAGAGAAAATAAAACCCCAG
p953
g2
(g6
S'(\xea =\xb2\xea\xe5?'
p954
tp955
Rp956
tp957
a(VTTCAATGGAAAATGTTCCTA
p958
g2
(g6
S'\xe6l\x97\xbcUe\x98?'
p959
tp960
Rp961
tp962
a(VATGTGCTCAGCCAGTTTCCC
p963
g2
(g6
S'\x06\xdaM\x8b"\xed\xb6?'
p964
tp965
Rp966
tp967
a(VTGCTTCATACGGTGAGACAA
p968
g2
(g6
S' \x06\x1d!\xc1\xbc\xd5?'
p969
tp970
Rp971
tp972
a(VAGTACACCAAGTATCATGAG
p973
g2
(g6
S'\xe4o\xd1\x82}\xef\xe2?'
p974
tp975
Rp976
tp977
a(VGTGGAAGCTCTAAGGGAGAG
p978
g2
(g6
S'\xbd\xb6!@2o\xd2?'
p979
tp980
Rp981
tp982
a(VCAGAGCGAACAAAAGTCCTA
p983
g2
(g6
S'\x86\xf7E\xd7\xbf\xea\xd4?'
p984
tp985
Rp986
tp987
a(VAGATTATAGGCAGCTGACCT
p988
g2
(g6
S'\\\x0biC\xb4\x0c\xbe?'
p989
tp990
Rp991
tp992
a(VCTTGGTGTACTCCCTGACCC
p993
g2
(g6
S'\xee}r`\xae\xef\xd7?'
p994
tp995
Rp996
tp997
a(VCAGCTTTGGAAGTCCCAGCT
p998
g2
(g6
S'\xfa\xad\xa5\x99Q\xa0\xa7?'
p999
tp1000
Rp1001
tp1002
a(VGATAATCCGTATTCTTAGCA
p1003
g2
(g6
S'R\x9a\xee\xf1\x19\x1b\xd2?'
p1004
tp1005
Rp1006
tp1007
a(VGAAGATGAAAGTGCGCAAAC
p1008
g2
(g6
S'\\\xee10\xa9\xdc\x9f?'
p1009
tp1010
Rp1011
tp1012
a(VTACTGGCCAAGCTGTTGCCT
p1013
g2
(g6
S'.\x8c\x9e\xa2\xbd\xd6\xc2?'
p1014
tp1015
Rp1016
tp1017
a(VGACTTTGGGAAACACAACAC
p1018
g2
(g6
S'\x8f$_\x0e]~\xaa?'
p1019
tp1020
Rp1021
tp1022
a(VGGCCGAATCTTGGTGTGTTG
p1023
g2
(g6
S'#\x98\xbee\xbbs\xc5?'
p1024
tp1025
Rp1026
tp1027
a(VCTGGCCTCAAAGGTAGCAAA
p1028
g2
(g6
S'\x9b\x19\xe9\x84QB\xc7?'
p1029
tp1030
Rp1031
tp1032
a(VTAAATTTAAAGCCCTAAAGA
p1033
g2
(g6
S'\xce\xf5\xf7\xfexB\xb8?'
p1034
tp1035
Rp1036
tp1037
a(VTAGTTGAAGTAATGATGGCA
p1038
g2
(g6
S'/\xa4V\xa7\xe9\x04\x9b?'
p1039
tp1040
Rp1041
tp1042
a(VATTTACTCTACCAACTGCTC
p1043
g2
(g6
S',\t\xf5\x99X\x85\xaa?'
p1044
tp1045
Rp1046
tp1047
a(VAGAAAAGCTATTTGACTTGG
p1048
g2
(g6
S'\xd4q\x16\xa5mD\xbd?'
p1049
tp1050
Rp1051
tp1052
a(VGGCATCACTGAGGCACTGTA
p1053
g2
(g6
S'\xed\x9cJ,G\x8d\xe0?'
p1054
tp1055
Rp1056
tp1057
a(VGCGATTGCTAGGCCCGGTAT
p1058
g2
(g6
S'\xae`-\xd4 `\xc9?'
p1059
tp1060
Rp1061
tp1062
a(VTCTTAACAATGGTCTTGTGA
p1063
g2
(g6
S'\xfc\x06\x14T\xce\xc3\xb8?'
p1064
tp1065
Rp1066
tp1067
a(VAAATCCATGAGCCTGGACAT
p1068
g2
(g6
S'z\xf8\xbbB\xe2\xc8\xb8?'
p1069
tp1070
Rp1071
tp1072
a(VACCTTAACCATTGCAAACCA
p1073
g2
(g6
S'\xc89\xbe\xb1\xf8!\xe1?'
p1074
tp1075
Rp1076
tp1077
a(VGCCGCTCACCTTCATGCACC
p1078
g2
(g6
S'\xae\x0c.F\xf2O\xb1?'
p1079
tp1080
Rp1081
tp1082
a(VCCATTCCACCGGCCTGTGCG
p1083
g2
(g6
S'\x88\x9b\xd2H\xeb\x12\xd6?'
p1084
tp1085
Rp1086
tp1087
a(VGGATGAACTAGCTCGAGTTC
p1088
g2
(g6
S'\x0e%\xa4\x7f\x937\xc6?'
p1089
tp1090
Rp1091
tp1092
a(VGGCTTGTCGGCAAATCGGGG
p1093
g2
(g6
S'\xd6\n\xf1Mu\xf6\xd8?'
p1094
tp1095
Rp1096
tp1097
a(VATATCTATAACTGTAACTCC
p1098
g2
(g6
S')\x01d\xfa\xbb}\xb5?'
p1099
tp1100
Rp1101
tp1102
a(VGGTCCAGTCAGTGAACGTAA
p1103
g2
(g6
S'\xca\x04E\xf1\xff\x9a\xeb?'
p1104
tp1105
Rp1106
tp1107
a(VCTCTTGTCTGGAGATCCTTG
p1108
g2
(g6
S'g\xe4\xafm\xaa\xbe\xd3?'
p1109
tp1110
Rp1111
tp1112
a(VAGCGATGGCTCTGGCCAATG
p1113
g2
(g6
S'cn$\xf4&\xcb\xa2?'
p1114
tp1115
Rp1116
tp1117
a(VTTCCCATAACCCAGTCTGTC
p1118
g2
(g6
S'\x89\x18t\x17hD\xaf?'
p1119
tp1120
Rp1121
tp1122
a(VAGCATACCTGGTATAAACAG
p1123
g2
(g6
S'1R\xe8\xef\xb7\xd3\xd1?'
p1124
tp1125
Rp1126
tp1127
a(VTTATACGAAAGCAAGAAACA
p1128
g2
(g6
S'\xce\x92\xcdC\x10\xc1\xd5?'
p1129
tp1130
Rp1131
tp1132
a(VCACCTTAACCATTGCAAACC
p1133
g2
(g6
S'\xef\xeb\x83\xd6\nme?'
p1134
tp1135
Rp1136
tp1137
a(VGCTTACTTGGATTAAAAAGC
p1138
g2
(g6
S'8\x1b\xd2x\x87S\xe2?'
p1139
tp1140
Rp1141
tp1142
a(VAAAGAGTGATGGCACTGCTG
p1143
g2
(g6
S';^~0\xbbj\xc8?'
p1144
tp1145
Rp1146
tp1147
a(VGGAACAATCAGGAGAAAATT
p1148
g2
(g6
S'\\\x00}\xcf\x06\x88\xda?'
p1149
tp1150
Rp1151
tp1152
a(VACGGACCAATGTTAAGGATC
p1153
g2
(g6
S'[\xc9O)\xfd$\x89?'
p1154
tp1155
Rp1156
tp1157
a(VGCCTCGGAAGAGAGTCTGCA
p1158
g2
(g6
S'\x1eJ.\xab"\xaf\xcf?'
p1159
tp1160
Rp1161
tp1162
a(VTTAAAGTGTTGGTTGTTGTG
p1163
g2
(g6
S'\xb9\rr0\xfe*\xd2?'
p1164
tp1165
Rp1166
tp1167
a(VCAAGTTCTTCATTATAGCTA
p1168
g2
(g6
S'U\xac\xaa/\xfc\xf4\xa8?'
p1169
tp1170
Rp1171
tp1172
a(VACACTCCCCCAAGGGCACAA
p1173
g2
(g6
S'\xeb\xb2(\x84\xbfS\xdc?'
p1174
tp1175
Rp1176
tp1177
a(VCTCCATGAATGTGTTATAGT
p1178
g2
(g6
S'\x17\xe4\x8f\xeb\xa4\x93\x92?'
p1179
tp1180
Rp1181
tp1182
a(VTCCTGGTGCATGAAGGTGAG
p1183
g2
(g6
S'\xf7c\xfd\xe0(\x0b\xd3?'
p1184
tp1185
Rp1186
tp1187
a(VGGCCACTTCTAGTTTGGTCT
p1188
g2
(g6
S'\x95\xb6\xd9\xd4P\xd5\xbb?'
p1189
tp1190
Rp1191
tp1192
a(VGTCTGTGTCAGACAAATCTA
p1193
g2
(g6
S'\xc0\xdds\x0f\xf2\x02\xd2?'
p1194
tp1195
Rp1196
tp1197
a(VTCACAAAAGAAGAACATATG
p1198
g2
(g6
S'v\xe6\xc5Yv \xd1?'
p1199
tp1200
Rp1201
tp1202
a(VGTTTGAGAGATTGGTGGAAC
p1203
g2
(g6
S'\xffs=v\xbcn\xaa?'
p1204
tp1205
Rp1206
tp1207
a(VCAATTCGTAATAAAGGATCC
p1208
g2
(g6
S'\x11\x84.X\xdf\xfd\x9f?'
p1209
tp1210
Rp1211
tp1212
a(VTACATTTAAACTTACCCTTC
p1213
g2
(g6
S'@\x17\x9b\xc3\xa6\xaf\x94?'
p1214
tp1215
Rp1216
tp1217
a(VAAAGGAGATACTTACACAAC
p1218
g2
(g6
S'E;\x97w\x0f\xaf\xa9?'
p1219
tp1220
Rp1221
tp1222
a(VTTTCCTACTTGTTCAGTCCA
p1223
g2
(g6
S'\xc9\xb1v\x8d\xf65\xc7?'
p1224
tp1225
Rp1226
tp1227
a(VCTGTCAGCAAATTTATGGAT
p1228
g2
(g6
S'\xb9\x03\xf1\x91\xff\x0f\xcc?'
p1229
tp1230
Rp1231
tp1232
a(VATTAGCAAACGAGTGTCTCA
p1233
g2
(g6
S'd\x94\xae3\x9ai\xa6?'
p1234
tp1235
Rp1236
tp1237
a(VTTCGGCCAAAAGATGTCCCT
p1238
g2
(g6
S'\xcc\x08(:\xb6Q\xc8?'
p1239
tp1240
Rp1241
tp1242
a(VCAGCAGCCGCTCATGATACT
p1243
g2
(g6
S'\x9eO\x03W\x90\x1e\xcb?'
p1244
tp1245
Rp1246
tp1247
a(VTGGTCCAGCCACTTGCACGT
p1248
g2
(g6
S'\xb6\xb9\x0bv\xbe\xbd\xd3?'
p1249
tp1250
Rp1251
tp1252
a(VCGTTCACTGACTGGACCCAT
p1253
g2
(g6
S'\xe8\x12{Y\xf4\x1d\xda?'
p1254
tp1255
Rp1256
tp1257
a(VACCAGCATGCAGCTGAACTT
p1258
g2
(g6
S'b_i\x1b\xaa"\xd6?'
p1259
tp1260
Rp1261
tp1262
a(VCACTGGAAAAATGTCTTGCT
p1263
g2
(g6
S'\xc2\x15\xc2\xfd\x8f2\x97?'
p1264
tp1265
Rp1266
tp1267
a(VTTGCTTTACATCGTCTACTC
p1268
g2
(g6
S"\xf9\xe5\xc4\x05='\xa4?"
p1269
tp1270
Rp1271
tp1272
a(VAGCAGATATCCGGTGTGGGG
p1273
g2
(g6
S'g\xf5_\xfeBC\xbe?'
p1274
tp1275
Rp1276
tp1277
a(VTCTTTAGTCGCATTTCTACC
p1278
g2
(g6
S'\xbb\xdbvS*~\xda?'
p1279
tp1280
Rp1281
tp1282
a(VCGATATTGAGCAGTGTCCCA
p1283
g2
(g6
S'L\x7f\\\x06\x8fk\xe3?'
p1284
tp1285
Rp1286
tp1287
a(VCGTTTCCCTCAGAACAGCAT
p1288
g2
(g6
S'\xc8a\xd2\r\x84\x9c\xe4?'
p1289
tp1290
Rp1291
tp1292
a(VAGGTCCACTACAATTTCATA
p1293
g2
(g6
S'\x84\x7f\x02\t9\xd8\xb6?'
p1294
tp1295
Rp1296
tp1297
a(VTGCTTTACACAGTTTGACAC
p1298
g2
(g6
S'\xc3\x90t\x84\x0e\xa5\xcf?'
p1299
tp1300
Rp1301
tp1302
a(VTCCTTCAGAACCTTTGGGAG
p1303
g2
(g6
S"\xd7n\x0c\x18\\'\xc0?"
p1304
tp1305
Rp1306
tp1307
a(VACCTGTCCCGGTAACTGGAA
p1308
g2
(g6
S'Y\xc0\xde\xa6:B\xd4?'
p1309
tp1310
Rp1311
tp1312
a(VCCTCTCTCCGGAAGGGAAAA
p1313
g2
(g6
S'\xa5d4P\xeb\x06\xd1?'
p1314
tp1315
Rp1316
tp1317
a(VGTCCTCTTCTAAAGCCAAGG
p1318
g2
(g6
S'\xe1\xe87\x07`G\xdc?'
p1319
tp1320
Rp1321
tp1322
a(VCATTCTTTAAAATAGTAGTG
p1323
g2
(g6
S'2\x16\xcc\xe6\x11f\xd9?'
p1324
tp1325
Rp1326
tp1327
a(VTCCATGTGTGGAAGCTCTAA
p1328
g2
(g6
S'\x1d\x94\xee\xb6$\xea\xca?'
p1329
tp1330
Rp1331
tp1332
a(VAGAACACTTTACCTGTCCTT
p1333
g2
(g6
S'\xe37\x80\xdcP\xc1\xbd?'
p1334
tp1335
Rp1336
tp1337
a(VCATAGACTGTCCTGGGAAAC
p1338
g2
(g6
S'\xb5\xb4>\xd8n*\xa4?'
p1339
tp1340
Rp1341
tp1342
a(VGGTTGGCAGTGATACTAAGC
p1343
g2
(g6
S']?\x92\xcc\xc9O\xc6?'
p1344
tp1345
Rp1346
tp1347
a(VTCTGCCACAGGTTTGTGCTC
p1348
g2
(g6
S'\xf6\xb7\xc2\xc3\xcd\x0c\xa5?'
p1349
tp1350
Rp1351
tp1352
a(VCTTACACAAAGCAAGAGCTT
p1353
g2
(g6
S'd\x98\x8a\xc2km\xc2?'
p1354
tp1355
Rp1356
tp1357
a(VGTTTGTGCTCTGGAGGACCC
p1358
g2
(g6
S'\xe8\xd0\xa0\xa3\x80\xad\xcc?'
p1359
tp1360
Rp1361
tp1362
a(VATCATTAGATCCACATCTGC
p1363
g2
(g6
S'\x90\xe1\xebJO\xc1\xc2?'
p1364
tp1365
Rp1366
tp1367
a(VGGCCAGAATTGCTTCTCTGC
p1368
g2
(g6
S'\x90\xad\x8a\x17\xdb\t\xa4?'
p1369
tp1370
Rp1371
tp1372
a(VGTAGTGGACCTTACCCATAC
p1373
g2
(g6
S'/\xbaW\x0ev\xc8\xc5?'
p1374
tp1375
Rp1376
tp1377
a(VCTCTGCACAATTCCATGGAT
p1378
g2
(g6
S'\xcc\xce\xb4Z\xe6H\xb4?'
p1379
tp1380
Rp1381
tp1382
a(VCAGAACAGCATCGGTGCAGT
p1383
g2
(g6
S'\xef\x04ww\xcf\x07\xc7?'
p1384
tp1385
Rp1386
tp1387
a(VTCTCTGGCATGTGTGACTGA
p1388
g2
(g6
S'_E\xd9j\xf5\xe6\xdd?'
p1389
tp1390
Rp1391
tp1392
a(VCACACTTGCAGAAACAGTAT
p1393
g2
(g6
S'\x06\xa6z\x02\xc6\x12\xc8?'
p1394
tp1395
Rp1396
tp1397
a(VGAAAAGATGACAAACCTGGT
p1398
g2
(g6
S'\x8by(\x9a\x9f\x8c\xce?'
p1399
tp1400
Rp1401
tp1402
a(VTAGAAGGTGAATTCTGAGCC
p1403
g2
(g6
S'tq\xb6\xe1\xf9\n\xc6?'
p1404
tp1405
Rp1406
tp1407
a(VGTCCCGGTAACTGGAACGGA
p1408
g2
(g6
S'\xa7\x1b\xc3\xc4h{\xd5?'
p1409
tp1410
Rp1411
tp1412
a(VTCATCTCTTGGCAAAATGAG
p1413
g2
(g6
S'4\x88\x19^l!\xe0?'
p1414
tp1415
Rp1416
tp1417
a(VAACAAGAGCTCTTGGTTGCA
p1418
g2
(g6
S'\xc6k3U\xfd\xb8\xc0?'
p1419
tp1420
Rp1421
tp1422
a(VACACTTCATAAAGCAGTGCA
p1423
g2
(g6
S'\x90\xd8\xb9,\xd0\xb5\xca?'
p1424
tp1425
Rp1426
tp1427
a(VGCAACACTTCTTGCATACCT
p1428
g2
(g6
S'\x1e\xbf\xd3>\xffx\xda?'
p1429
tp1430
Rp1431
tp1432
a(VCAGGTACCTTGCTAAGAATA
p1433
g2
(g6
S"'\xb4\x93^'\xb7\xbc?"
p1434
tp1435
Rp1436
tp1437
a(VAGCTTTGTTGGAGATCATGG
p1438
g2
(g6
S'\xc9\xb1\xdepk\xe7\xd5?'
p1439
tp1440
Rp1441
tp1442
a(VTTACCTTGTCATTGAATATA
p1443
g2
(g6
S'\xc5q\xbf\xc7\x89\x84\xc5?'
p1444
tp1445
Rp1446
tp1447
a(VTCAAATACGGACCAATGTTA
p1448
g2
(g6
S'l\xdcV\x0b\xd0\\\xcb?'
p1449
tp1450
Rp1451
tp1452
a(VCATAAAGCAGTGCAAGGTTG
p1453
g2
(g6
S'\xe0\x9b/\xc1l\xac\xce?'
p1454
tp1455
Rp1456
tp1457
a(VGCCTGAAGAAGGAGATGGTG
p1458
g2
(g6
S'^\x1b\x06\x00\x82\xca\xbe?'
p1459
tp1460
Rp1461
tp1462
a(VGTAAAAAAGGAGAAAGTGAC
p1463
g2
(g6
S'K q\x04\xb3f\xde?'
p1464
tp1465
Rp1466
tp1467
a(VTTCTGAGGAGGAACTGATGA
p1468
g2
(g6
S'\x86\xd9R\xa7\x06\x11\xb7?'
p1469
tp1470
Rp1471
tp1472
a(VGCTTTGAAGTGGATCCTACC
p1473
g2
(g6
S'(\xf6\x98\x94\xf7\xdb\xd7?'
p1474
tp1475
Rp1476
tp1477
a(VTTCTTAGTGTTGGCCTGAGA
p1478
g2
(g6
S'\x88\xc5\r\x97\xd3\xa0\xad?'
p1479
tp1480
Rp1481
tp1482
a(VGCCCAACTATAACACATTCA
p1483
g2
(g6
S'u\r\xc8\x98\x9a\x88\xc8?'
p1484
tp1485
Rp1486
tp1487
a(VTGCCTTCCGTTCCAGTTACC
p1488
g2
(g6
S'jn\x0610(\xc0?'
p1489
tp1490
Rp1491
tp1492
a(VACTAATAGAGACAATAAAGA
p1493
g2
(g6
S'\x045r\x99w\xa5\xe9?'
p1494
tp1495
Rp1496
tp1497
a(VGCTGGAGGCACACTCCCCCA
p1498
g2
(g6
S'\xed\x9d\xd1V%\x91\xdb?'
p1499
tp1500
Rp1501
tp1502
a(VTCTGTGAGGAAGCAGATATC
p1503
g2
(g6
S'\x98\x19f\x03\x11\xab\xc0?'
p1504
tp1505
Rp1506
tp1507
a(VCAATCCGGAATCCTCTGGAG
p1508
g2
(g6
S'\xff\x00\xa88\xc7\xe6\xb9?'
p1509
tp1510
Rp1511
tp1512
a(VAGCTTCTGTGACTGTTTCCA
p1513
g2
(g6
S'r\xf5\xbcKD`\xc1?'
p1514
tp1515
Rp1516
tp1517
a(VCCAGGATATATCCAAAGACG
p1518
g2
(g6
S'\xc2\xe8\xf4\xe7\x9b\xa7\xe3?'
p1519
tp1520
Rp1521
tp1522
a(VTGTCTCTATTAGTAAGACAC
p1523
g2
(g6
S'\x98\x10\x1dI\x1cN\xcd?'
p1524
tp1525
Rp1526
tp1527
a(VAGAAGCAGCGCCTGGATCTT
p1528
g2
(g6
S'y\x91%MeL\xa1?'
p1529
tp1530
Rp1531
tp1532
a(VGACCAATGTTAAGGATCTGG
p1533
g2
(g6
S'\x9c\x1ej\x94[~\xc5?'
p1534
tp1535
Rp1536
tp1537
a(VCTCGGAGGCTGGCATCACTG
p1538
g2
(g6
S'xn\x0c\xc7\x14h\xd6?'
p1539
tp1540
Rp1541
tp1542
a(VTTGTGATCACATCCTCTGAT
p1543
g2
(g6
S'M\xf2\xb1(\xdd7\xc0?'
p1544
tp1545
Rp1546
tp1547
a(VGAACTTCGGAATTCTGCCTC
p1548
g2
(g6
S'\x17\x1e\xa8\x11\x02\x0bs?'
p1549
tp1550
Rp1551
tp1552
a(VGGACATGGCCGCGCACAGGC
p1553
g2
(g6
S'\x0b\xa0\xea G\x84\xd0?'
p1554
tp1555
Rp1556
tp1557
a(VATTGCCATAAATACTTCCTC
p1558
g2
(g6
S'#\x1a\xa5\x97\x8d\xd8\xbb?'
p1559
tp1560
Rp1561
tp1562
a(VTGCTGTTCTGAGGGAAACGC
p1563
g2
(g6
S'\xbf\xdc\xd3Gs\x13\xd4?'
p1564
tp1565
Rp1566
tp1567
a(VAGCCACAGCTACCCAAAAGA
p1568
g2
(g6
S'e\x00\xdd\xd4\x96\xd3\xde?'
p1569
tp1570
Rp1571
tp1572
a(VCCCTTCCGGAGAGAGGCTCC
p1573
g2
(g6
S'\xb6w6y\x04\x16d?'
p1574
tp1575
Rp1576
tp1577
a(VGCCACCACCTAGAATCGAAA
p1578
g2
(g6
S')z\xe0c\xb0r\xe0?'
p1579
tp1580
Rp1581
tp1582
a(VTAAGTATCTTCTCTTGTCCA
p1583
g2
(g6
S'B\xcf\xa8\xf1\xb9\xb0\xc2?'
p1584
tp1585
Rp1586
tp1587
a(VTTTACATACACTACTAACTC
p1588
g2
(g6
S'\xca\xa90\xc5;\x11\xab?'
p1589
tp1590
Rp1591
tp1592
a(VACGTGGCATGTCTCGGAGGC
p1593
g2
(g6
S'I\x8d,@\xab1\x90?'
p1594
tp1595
Rp1596
tp1597
a(VTCCTGGAGCCTCTCTCCGGA
p1598
g2
(g6
S'\x8b\x97\x1b\xcaX\xc6\xc8?'
p1599
tp1600
Rp1601
tp1602
a(VCTCCTTCTTCAGGCTGCAGA
p1603
g2
(g6
S'\xac\x1aO\xc7\r\x06\xc5?'
p1604
tp1605
Rp1606
tp1607
a(VAGGTGTTTCAATTCAATACC
p1608
g2
(g6
S'\x8a\xdd\xd4\xc6,\x89\xbf?'
p1609
tp1610
Rp1611
tp1612
a(VGGAAACGTGGCATGTCTCGG
p1613
g2
(g6
S'\x9d\xf0T\xb8\xcc&\xd3?'
p1614
tp1615
Rp1616
tp1617
a(VTCAGCTGCCTACTTCCTCCA
p1618
g2
(g6
S'\x19\x1a\xbc\xa0\x9f\xf8\xd5?'
p1619
tp1620
Rp1621
tp1622
a(VAGATTTGGACCAGGCAAGCA
p1623
g2
(g6
S'&`\x04%\xb6\xaf\xd2?'
p1624
tp1625
Rp1626
tp1627
a(VATCAAAACCAGTGCAACAGG
p1628
g2
(g6
S'\x98@\xe4\t\x91\xc7\xcd?'
p1629
tp1630
Rp1631
tp1632
a(VATCTTGCTGCAGAAACTCAG
p1633
g2
(g6
S'}^\x8e\xaah\x94\xe2?'
p1634
tp1635
Rp1636
tp1637
a(VACTTTGAACTGGTAAGGTTA
p1638
g2
(g6
S'-,i\xd9\x1b\xfb\xb7?'
p1639
tp1640
Rp1641
tp1642
a(VCATGAGACCACTGTCTACGT
p1643
g2
(g6
S'B\x90N \x96T\xc3?'
p1644
tp1645
Rp1646
tp1647
a(VAGTGTCCCAGGGACATCTTT
p1648
g2
(g6
S'\xc5.p\xca\xf3X\xc5?'
p1649
tp1650
Rp1651
tp1652
a(VACACAGACTCCCTACAGGAA
p1653
g2
(g6
S'\xd0\xec\x1d\xe2\xdd\xf9\xd3?'
p1654
tp1655
Rp1656
tp1657
a(VCTCATGGATTTCCTGGCTCG
p1658
g2
(g6
S'k:B\xd3\x00H\xae?'
p1659
tp1660
Rp1661
tp1662
a(VGGGAGGACATGGCCGCGCAC
p1663
g2
(g6
S'\xd4\xe2\xbe\x9b\x8f\xa7\xcd?'
p1664
tp1665
Rp1666
tp1667
a(VCTCAATGCCAACGTAGACAG
p1668
g2
(g6
S'q\x0f\x9aA\xa2\xa7\xdc?'
p1669
tp1670
Rp1671
tp1672
a(VAAATCCACTTACCTATAGGA
p1673
g2
(g6
S'>\xb6\x9a\xb2)\x10\xbc?'
p1674
tp1675
Rp1676
tp1677
a(VTGATGCTGTGTATTGTCACT
p1678
g2
(g6
S'R\xea\xf0\xe2\x8d$\xe1?'
p1679
tp1680
Rp1681
tp1682
a(VATAAGATGTTGTTCTAAAGT
p1683
g2
(g6
S'\x0b\x0c\x89\x16\x01\x17\xcc?'
p1684
tp1685
Rp1686
tp1687
a(VGATGAAAGTGCGCAAACAGG
p1688
g2
(g6
S'\xfe\t\xe2\xc7\x8ei\xe1?'
p1689
tp1690
Rp1691
tp1692
a(VGGTGGAATGGGTCCAGGCCG
p1693
g2
(g6
S'zH^\xc1)(\xe0?'
p1694
tp1695
Rp1696
tp1697
a(VGGCCAGTTACTAGAGACATC
p1698
g2
(g6
S'l\xf1\x8e+\xac\x16\xca?'
p1699
tp1700
Rp1701
tp1702
a(VGAGTAAATCCACTTACCTAT
p1703
g2
(g6
S'^7\x05/\x83\xac\xe2?'
p1704
tp1705
Rp1706
tp1707
a(VCTTCTTTACAGGTTATTGGA
p1708
g2
(g6
S'\xd4F.e\x04\xe7\xd1?'
p1709
tp1710
Rp1711
tp1712
a(VAGGAGATGGTGTGGAATTGA
p1713
g2
(g6
S'b\x8f\xf81\xc0\xe7\xa5?'
p1714
tp1715
Rp1716
tp1717
a(VAAAACATGTTCCAGAGCAGT
p1718
g2
(g6
S'\x89\x9c\n-\xf5\xf0\xbc?'
p1719
tp1720
Rp1721
tp1722
a(VAAGCTGGGACTTCCAAAGCT
p1723
g2
(g6
S'\x08\xc8 B\x1f\xb6\xd1?'
p1724
tp1725
Rp1726
tp1727
a(VCTCCCTCTGCAGCCTGAAGA
p1728
g2
(g6
S'\xf8\x03\x11\xee=\xf8\xb5?'
p1729
tp1730
Rp1731
tp1732
a(VTAAGGCACACAGAAGATTAT
p1733
g2
(g6
S'(]\x07\xc2\xa6\xf2\xc8?'
p1734
tp1735
Rp1736
tp1737
a(VAGGAGAACTCCCTATAGCGA
p1738
g2
(g6
S'Y\xd1\xc8\xe2\\\xe5\xe1?'
p1739
tp1740
Rp1741
tp1742
a(VGGGTCCAGTCAGTGAACGTA
p1743
g2
(g6
S'\x98\x1d\xaauW\x80\xa4?'
p1744
tp1745
Rp1746
tp1747
a(VCTGCACCGATGCTGTTCTGA
p1748
g2
(g6
S'\xa6\xd1\xda\xf0\x98\xda\xc3?'
p1749
tp1750
Rp1751
tp1752
a(VAGCAAAAGTCTCTCTCTCAT
p1753
g2
(g6
S'e\xd3\x93\xf7F\xf4\xc5?'
p1754
tp1755
Rp1756
tp1757
a(VAACAGTCACAGAAGCTTTGT
p1758
g2
(g6
S'\x02;\xf2\x98eu\x9b?'
p1759
tp1760
Rp1761
tp1762
a(VTGAATTGAAACACCTTTGTT
p1763
g2
(g6
S'g\xb9\x97\xf4*D\xa9?'
p1764
tp1765
Rp1766
tp1767
a(VGATACATATCCCATTCATCA
p1768
g2
(g6
S'\x94\xb5q\xb70\xba\xc4?'
p1769
tp1770
Rp1771
tp1772
a(VTAAAGTGTTGGTTGTTGTGA
p1773
g2
(g6
S'=\x8b"\xc7}{\xaa?'
p1774
tp1775
Rp1776
tp1777
a(VATAACTGTAACTCCTGGGTC
p1778
g2
(g6
S"W\xdc'cV\xd1\xc4?"
p1779
tp1780
Rp1781
tp1782
a(VTCTAAGGGAGAGCGGACCTG
p1783
g2
(g6
S'\xad<Sxhi\xd7?'
p1784
tp1785
Rp1786
tp1787
a(VTGCTTGCAGTGCCACTCCAG
p1788
g2
(g6
S'\r)\x8d8g{\xc8?'
p1789
tp1790
Rp1791
tp1792
a(VTTCAAAACTGGTCAAATCAA
p1793
g2
(g6
S'U\xb8\xb01Yc\xcc?'
p1794
tp1795
Rp1796
tp1797
a(VCCAAGTAAGCCATTCTCAAG
p1798
g2
(g6
S'\x0f(\xa0+?`\xdb?'
p1799
tp1800
Rp1801
tp1802
a(VGCAAAAATATGGGGAAGCCT
p1803
g2
(g6
S'\xc4\x1asF\xb0+\xd2?'
p1804
tp1805
Rp1806
tp1807
a(VAACCTGATGTCTCTAGTAAC
p1808
g2
(g6
S'\xe4\xfc\xce\xa8Y\x1d\xb2?'
p1809
tp1810
Rp1811
tp1812
a(VTTGCAGAATCCAAGAAAACA
p1813
g2
(g6
S'md\xec\xbeB\n\xd0?'
p1814
tp1815
Rp1816
tp1817
a(VCCAAACGTAAAGCAGCAGTT
p1818
g2
(g6
S'\x1c=j\x8b\xec|\xd2?'
p1819
tp1820
Rp1821
tp1822
a(VAATATGGGGAAGCCTTGGGC
p1823
g2
(g6
S'\xa7\x157R\xdc\x0f\xa3?'
p1824
tp1825
Rp1826
tp1827
a(VATAAAGAGGGTGTTGTTGGC
p1828
g2
(g6
S'\xa4\x1b\xef\xfb(\x84\xb5?'
p1829
tp1830
Rp1831
tp1832
a(VGACCAGTGTGTATCTGCCAC
p1833
g2
(g6
S'\x1e\xaa^\xbb\nb\xcc?'
p1834
tp1835
Rp1836
tp1837
a(VTCACTTACCCACTGAGAACA
p1838
g2
(g6
S'\xcbY\x93\xff\xad\n\xb8?'
p1839
tp1840
Rp1841
tp1842
a(VGAGAACACTTTACCTGTCCT
p1843
g2
(g6
S'D\xda\xbc-5\x1b\xba?'
p1844
tp1845
Rp1846
tp1847
a(VCCATAAATGTAGCTCTTGTC
p1848
g2
(g6
S'|\x8e%2\xc7\x80\xb0?'
p1849
tp1850
Rp1851
tp1852
a(VTGGCTTCCTTTGTGCCCTTG
p1853
g2
(g6
S'\xb1\xcd\nh\xc9\xb3\xa1?'
p1854
tp1855
Rp1856
tp1857
a(VGCCAACACTAAGAAGTTGCT
p1858
g2
(g6
S'\xf6\x03\x98\xdepr\xd0?'
p1859
tp1860
Rp1861
tp1862
a(VCGGTTACCTGCTCGTCGAAG
p1863
g2
(g6
S'P\xcc\xda\xa3\xc0-\xd0?'
p1864
tp1865
Rp1866
tp1867
a(VATTTCAGTGATGTCTTCAGA
p1868
g2
(g6
S'\x92B\xd0\x06\x9d\xe6\xe1?'
p1869
tp1870
Rp1871
tp1872
a(VCTACTGCTTCCATGCTTGCC
p1873
g2
(g6
S'$h\xeazDz\xa7?'
p1874
tp1875
Rp1876
tp1877
a(VGTAGCACAGAAATTCTCAAG
p1878
g2
(g6
S'&M\xd7\xa1\x07O\xe7?'
p1879
tp1880
Rp1881
tp1882
a(VAAGGCAGCTCTGAACATCTA
p1883
g2
(g6
S'w\xe6\xfaKFf\xcf?'
p1884
tp1885
Rp1886
tp1887
a(VATGTGTTATAGTTGGGCAAG
p1888
g2
(g6
S'\x9f\xfd\x18\xd8\x02\xf9\xa4?'
p1889
tp1890
Rp1891
tp1892
a(VTCCAGTCTATCATTCATATC
p1893
g2
(g6
S'\xf3\xe3U\xf4\x8c\x1f\xc5?'
p1894
tp1895
Rp1896
tp1897
a(VTTCTCTAGTCCGCATTGGAT
p1898
g2
(g6
S'G4+"]\xc8\xbb?'
p1899
tp1900
Rp1901
tp1902
a(VCTCTAACTTTAACTTTGCAT
p1903
g2
(g6
S'N\x1a\xb4\xa1\xaci\xc0?'
p1904
tp1905
Rp1906
tp1907
a(VTACCTGACAGACTGGGTTAT
p1908
g2
(g6
S'\x82\xd7\xbf\xcf\xde7\x97?'
p1909
tp1910
Rp1911
tp1912
a(VGTTACTTTCTTAGTAGCCAC
p1913
g2
(g6
S'.e \x9c=\xba\xd1?'
p1914
tp1915
Rp1916
tp1917
a(VTGCCACCTTGGCTTTAGAAG
p1918
g2
(g6
S'\xc8\x96\x01Abv\xc8?'
p1919
tp1920
Rp1921
tp1922
a(VTACCAGCCATATCAGTCTGT
p1923
g2
(g6
S'\xc9<\x18\xcf\xa5\xda\xca?'
p1924
tp1925
Rp1926
tp1927
a(VCTGAGAACAAGGAACCACAT
p1928
g2
(g6
S'\x83\x9a\x1fT\xe9\x94\xd3?'
p1929
tp1930
Rp1931
tp1932
a(VCCGGTGCCATTCGTATTGCT
p1933
g2
(g6
S'\xb9\x03\x00\xbd,J\xc9?'
p1934
tp1935
Rp1936
tp1937
a(VCTGCTTCCTCACAGAGGTGG
p1938
g2
(g6
S'PT\xf9H\x91o\xd4?'
p1939
tp1940
Rp1941
tp1942
a(VCAGGAGAGAATGACCTGTCC
p1943
g2
(g6
S'S>A\xb8\xbb4\xa5?'
p1944
tp1945
Rp1946
tp1947
a(VCTTTGTGCAGAGGCGAGTCC
p1948
g2
(g6
S'w\xa6\xdf\xa4\xba\x97\xb5?'
p1949
tp1950
Rp1951
tp1952
a(VCTTTAGAACAACATCTTATG
p1953
g2
(g6
S',\xa0v\x16\xc2\x0c\xa4?'
p1954
tp1955
Rp1956
tp1957
a(VAGCACACCCAGCAATACGAA
p1958
g2
(g6
S'1\xb5!\xd6M\x8f\xdb?'
p1959
tp1960
Rp1961
tp1962
a(VGTCACAATGATGGGTGATCA
p1963
g2
(g6
S'\xd0R\xb4\x9d\xaf\x8c\x99?'
p1964
tp1965
Rp1966
tp1967
a(VCTTGCAACAATAGCAGGTGA
p1968
g2
(g6
S'\x0c\xediu\xdc\xaa\xc4?'
p1969
tp1970
Rp1971
tp1972
a(VTCTTTATGAATACTTAGCAG
p1973
g2
(g6
S'\xa2\x9c\xdfe\xc3\xe0\xe1?'
p1974
tp1975
Rp1976
tp1977
a(VATTGTCTCACCGTATGAAGC
p1978
g2
(g6
S'\x9f\xfd9\xe6\xeb\x9b\xbf?'
p1979
tp1980
Rp1981
tp1982
a(VAGCCCAGACCAAACTAGAAG
p1983
g2
(g6
S'\xack\xf1\x7f\x00\xbf\xcf?'
p1984
tp1985
Rp1986
tp1987
a(VCCAGATCCCACAGACTGATA
p1988
g2
(g6
S'\x99\x83\xfb\\\xc8\xfe\xb0?'
p1989
tp1990
Rp1991
tp1992
a(VAGTGTTGCCATCTTATCAAA
p1993
g2
(g6
S'}\xc8L\x83QR\xdc?'
p1994
tp1995
Rp1996
tp1997
a(VGCTCATGGATTTCCTGGCTC
p1998
g2
(g6
S'\xb7{\xfbk`H\xb7?'
p1999
tp2000
Rp2001
tp2002
a(VGAAATCCATGAGCCTGGACA
p2003
g2
(g6
S'^\xc3\x88T\x83v\xb8?'
p2004
tp2005
Rp2006
tp2007
a(VATGATGTAAAATGTCTTACA
p2008
g2
(g6
S'g\x92\x8bC\x93J\xad?'
p2009
tp2010
Rp2011
tp2012
a(VCAGACACAAAGGCTCCTAAA
p2013
g2
(g6
S'\x95\xae8S#\x9f\xb7?'
p2014
tp2015
Rp2016
tp2017
a(VGCCAGACCAGTCCCCGAGCC
p2018
g2
(g6
S'!9\xd1b\xb4\x04\xb2?'
p2019
tp2020
Rp2021
tp2022
a(VGGCTTCCTTTGTGCCCTTGG
p2023
g2
(g6
S'.l\xe4\xf2\xd3C\xb7?'
p2024
tp2025
Rp2026
tp2027
a(VGGATATCTGCTTCCTCACAG
p2028
g2
(g6
S'\xd0\xb0q-\xf54\xe9?'
p2029
tp2030
Rp2031
tp2032
a(VTCGTCTACTCTGGAACAATC
p2033
g2
(g6
S'(\xc4\x12\xc5\x9a\xc0\xc5?'
p2034
tp2035
Rp2036
tp2037
a(VAACTTCGGAATTCTGCCTCT
p2038
g2
(g6
S'\x92u\x7f\x8f\xd6%\xa9?'
p2039
tp2040
Rp2041
tp2042
a(VGATTTCAGTGATGTCTTCAG
p2043
g2
(g6
S'\x12\x82%\xbc\xdc^\xd6?'
p2044
tp2045
Rp2046
tp2047
a(VGCAACATGTTAGCTTTGAAG
p2048
g2
(g6
S'\xe2\xbe\xfe\xb9\xa2\x13\xde?'
p2049
tp2050
Rp2051
tp2052
a(VAAACAGGGGCCCGAAACCCA
p2053
g2
(g6
S'\x1c\xdb\xf1z\xbe\xd3\xb4?'
p2054
tp2055
Rp2056
tp2057
a(VGCAAACTCAATACCTGCCCA
p2058
g2
(g6
S'\x1c\xe3A\xb5\xec\x99\xe0?'
p2059
tp2060
Rp2061
tp2062
a(VGGCTGACTGCCTCTTGAGAA
p2063
g2
(g6
S'MV\xdf\xd5\x7f\xd1\xca?'
p2064
tp2065
Rp2066
tp2067
a(VTCACTTGATATCAGACACAA
p2068
g2
(g6
S'\rs@\x1ag\xb6\xd1?'
p2069
tp2070
Rp2071
tp2072
a(VCCCAGCAATACGAATGGCAC
p2073
g2
(g6
S'\x9b"<\xb1\xb9\xb0\xd5?'
p2074
tp2075
Rp2076
tp2077
a(VATGCTGGTTTCCTTCACGAC
p2078
g2
(g6
S'\xb5\xf6\xa1\x7f@\xaf\xc5?'
p2079
tp2080
Rp2081
tp2082
a(VCCGCGCACAGGCCGGTGGAA
p2083
g2
(g6
S'*\xe3L\x04\x8br\x9e?'
p2084
tp2085
Rp2086
tp2087
a(VTGCATGAATTAGTTTCACCA
p2088
g2
(g6
S'\xa3\xd9Q\xa9\xcd\x10\xd3?'
p2089
tp2090
Rp2091
tp2092
a(VAAAAATAGGATTCCCAGCTT
p2093
g2
(g6
S'\x9b\xa6\x02\x00]\xba\x89?'
p2094
tp2095
Rp2096
tp2097
a(VAATCCATGAGCCTGGACATG
p2098
g2
(g6
S'\xfalE\xe4\xb9\x93\xb5?'
p2099
tp2100
Rp2101
tp2102
a(VAGTACAGCAGAATTAATTAC
p2103
g2
(g6
S'\xca\x84l\x14\xea\r\xc3?'
p2104
tp2105
Rp2106
tp2107
a(VCTTGGGATCAATAAAAGCTG
p2108
g2
(g6
S'\xdd\xa6\x12z\n$\xe4?'
p2109
tp2110
Rp2111
tp2112
a(VCAGCCATGGTCCTCTCCCAA
p2113
g2
(g6
S']\x8e\x87Y\x90/\xc8?'
p2114
tp2115
Rp2116
tp2117
a(VAGGAAGTATTTATGGCAATC
p2118
g2
(g6
S'S\x9fI:\x81\xeb\x9b?'
p2119
tp2120
Rp2121
tp2122
a(VTCCCCCAACACACCAAGATT
p2123
g2
(g6
S'\x84\xa3\x81\xab~\xdd\xc3?'
p2124
tp2125
Rp2126
tp2127
a(VAGTGGTCTCATGCACTCCAT
p2128
g2
(g6
S'\xa8\xdfv\x82\xac0\xd9?'
p2129
tp2130
Rp2131
tp2132
a(VACAATAAGCTCAGCATAGTC
p2133
g2
(g6
S'\x8e\xbf@R<\x95\xbe?'
p2134
tp2135
Rp2136
tp2137
a(VCAATGATGTTAAATCTGGTC
p2138
g2
(g6
S'9\x7f\x80\xa6?\xaa\x94?'
p2139
tp2140
Rp2141
tp2142
a(VGGCTGTGCTGCAGCTTGATG
p2143
g2
(g6
S"\xda\xea\x86.'\xef\xb1?"
p2144
tp2145
Rp2146
tp2147
a(VCCATATCAGTCTGTGGGATC
p2148
g2
(g6
S'j\xb4\xb2\x03\x02+\x8c?'
p2149
tp2150
Rp2151
tp2152
a(VACTTACTGATCCGAAGATCC
p2153
g2
(g6
S'Ze\x18\n\xe7\xb9\xb1?'
p2154
tp2155
Rp2156
tp2157
a(VATTTGATTTGTTGCAGGTTT
p2158
g2
(g6
S'\x1d\xe3\xf2n\x18D\x97?'
p2159
tp2160
Rp2161
tp2162
a(VAGGTAAGATGTTTGGTATTG
p2163
g2
(g6
S'\x81\x10\xb7\xad\xa7\x02\x88?'
p2164
tp2165
Rp2166
tp2167
a(VTGTTTGTCCACATTAGGCTT
p2168
g2
(g6
S'\xae\xcd\x1aJZ\xa2\xd6?'
p2169
tp2170
Rp2171
tp2172
a(VTAAGATGTTTGGTATTGTGG
p2173
g2
(g6
S'n\xe8\x00\x9dV\xc5\xac?'
p2174
tp2175
Rp2176
tp2177
a(VCACTAAAGGAGACTCAGCCA
p2178
g2
(g6
S'\xc8\xa0M\xed\x90\x0b\xb8?'
p2179
tp2180
Rp2181
tp2182
a(VGAGGAAGCAGATATCCGGTG
p2183
g2
(g6
S'{\x15\x02\x81\x1a\xb3\xba?'
p2184
tp2185
Rp2186
tp2187
a(VAGCAAGTACTTACATCAATT
p2188
g2
(g6
S'l\xec\xfb8\xe61\xbe?'
p2189
tp2190
Rp2191
tp2192
a(VTTACACAACAGGAAAGACTT
p2193
g2
(g6
S'\xdcH\x97\x06\x97\xf1\xbd?'
p2194
tp2195
Rp2196
tp2197
a(VACTTACTTTAATAGAAACTT
p2198
g2
(g6
S'\xec\xe81*\xa6[\xad?'
p2199
tp2200
Rp2201
tp2202
a(VGGCAGTATCTTTCCAGCAAC
p2203
g2
(g6
S'C8\xef\xca\xf1\xf4\xd0?'
p2204
tp2205
Rp2206
tp2207
a(VTCATCTGAAGGAGGTTCCGC
p2208
g2
(g6
S'n\xd3\xeeC\x1dW\xc0?'
p2209
tp2210
Rp2211
tp2212
a(VAGCCAGGAAATCCATGAGCC
p2213
g2
(g6
S'\xae\x0b\xbe\xb7\x89]\xb1?'
p2214
tp2215
Rp2216
tp2217
a(VTCCTCTCCCAAAGGTTCTGA
p2218
g2
(g6
S'\n\xcb\x0f\xc4\xc8>\xc1?'
p2219
tp2220
Rp2221
tp2222
a(VAAATACCAGTCAAATGTCCA
p2223
g2
(g6
S'\x17\xe6\x1e\xc1v\xf8\xc1?'
p2224
tp2225
Rp2226
tp2227
a(VTGGAACAATCAGGAGAAAAT
p2228
g2
(g6
S'\xa00\xa7RS\x95\xae?'
p2229
tp2230
Rp2231
tp2232
a(VTTGCCCCATGTCCAGGCTCA
p2233
g2
(g6
S'Ej\xa2\x1b\xd6^\x96?'
p2234
tp2235
Rp2236
tp2237
a(VTGAACTGGTAAGGTTAAGGC
p2238
g2
(g6
S'(E+\xf7\x023\xce?'
p2239
tp2240
Rp2241
tp2242
a(VACTTGACTGTTGTAAGTGTC
p2243
g2
(g6
S'\xf8\xe7o0>\xc6\xc1?'
p2244
tp2245
Rp2246
tp2247
a(VTCTAATCTCATTGTGTCCTT
p2248
g2
(g6
S'\x82b\x1a<\x02\xce\xd3?'
p2249
tp2250
Rp2251
tp2252
a(VGGAAGGGTCACCATGATGAA
p2253
g2
(g6
S'\x10\x15a\xc5\xd4\xa6\xe0?'
p2254
tp2255
Rp2256
tp2257
a(VTAAATTAAAGGTACAAGTTA
p2258
g2
(g6
S'u\x05\x01P\xcaF\x93?'
p2259
tp2260
Rp2261
tp2262
a(VGAGAAGGTTGCCCCATGTCC
p2263
g2
(g6
S'6\xefL).\x15\x99?'
p2264
tp2265
Rp2266
tp2267
a(VTCCTCCAGAGCACAAACCTG
p2268
g2
(g6
S'\xad\x99\x1cA\xa1\x13\xcf?'
p2269
tp2270
Rp2271
tp2272
a(VATGATCCATGGACATTTGAC
p2273
g2
(g6
S'\xee\xa7\xce\xbc\x7f`\xc3?'
p2274
tp2275
Rp2276
tp2277
a(VGAGGTCAACTTGTATTCAGC
p2278
g2
(g6
S'\xc8\xb3\x89\x9blf\xbb?'
p2279
tp2280
Rp2281
tp2282
a(VCGGGACAGGTCATTCTCTCC
p2283
g2
(g6
S'J\xec&m\xb4`e?'
p2284
tp2285
Rp2286
tp2287
a(VCATGGCCGCGCACAGGCCGG
p2288
g2
(g6
S'\xcc\x18!gZ\x15\xb7?'
p2289
tp2290
Rp2291
tp2292
a(VATAGGTATGTTCGTGTGCTT
p2293
g2
(g6
S'\xa0\x9a\xd2\xc7j\x1d\xd2?'
p2294
tp2295
Rp2296
tp2297
a(VTTCATCTTTCAGGACACTAA
p2298
g2
(g6
S'\x99\xa9gF\xe1\xa8\x90?'
p2299
tp2300
Rp2301
tp2302
a(VGGCTCATGGATTTCCTGGCT
p2303
g2
(g6
S'\xf5\xc3\x8e\x1a\xa1\x0c\x8a?'
p2304
tp2305
Rp2306
tp2307
a(VGGATCCTCCTCCACTCACAT
p2308
g2
(g6
S'\xc6\x1a\xd5\xb9\x07\x10\xe3?'
p2309
tp2310
Rp2311
tp2312
a(VTATGGCAATCCGGAATCCTC
p2313
g2
(g6
S'\xbf\x01\xe4\x86\n\xce\xbe?'
p2314
tp2315
Rp2316
tp2317
a(VGGTGTGTTGGGGGATAGAGT
p2318
g2
(g6
S'\x94\x8b\x82\xf7\x8d\xa3\xd1?'
p2319
tp2320
Rp2321
tp2322
a(VAAAGCTCTTGCTGGCCATGG
p2323
g2
(g6
S'\x80\xa6\x19\xe3\xa7\x97\xa4?'
p2324
tp2325
Rp2326
tp2327
a(VAAGATGAGCTGCCACATCAA
p2328
g2
(g6
S'\xa7\xca\x8a\xf0\x15\x0e\xdc?'
p2329
tp2330
Rp2331
tp2332
a(VACGGCCTGGACCCATTCCAC
p2333
g2
(g6
S'\xd8G0\xa0\xda\x8a\xaf?'
p2334
tp2335
Rp2336
tp2337
a(VGTACTCCTGGAGCCTCTCTC
p2338
g2
(g6
S'\x92.\x12\xe7\x9c@\xe4?'
p2339
tp2340
Rp2341
tp2342
a(VCTGCAGCCTGAAGAAGGAGA
p2343
g2
(g6
S'\xab\xef\x15@\xa5\xc8\xe0?'
p2344
tp2345
Rp2346
tp2347
a(VAGGCAGTCAGCCTGCAGATG
p2348
g2
(g6
S'\xf6\xd9\xef\xf3YJ\x84?'
p2349
tp2350
Rp2351
tp2352
a(VCCCCTTTCGATTCTAGGTGG
p2353
g2
(g6
S'\x8fe}\xa7"\xc5\xc6?'
p2354
tp2355
Rp2356
tp2357
a(VAGAGCTCTTGGTTGCAGGGA
p2358
g2
(g6
S"\x92\x00\x98\xdf'\x16\xa6?"
p2359
tp2360
Rp2361
tp2362
a(VGAAGAATTACTACGTACTCC
p2363
g2
(g6
S'.\x0f\x97\xf1\xf6\xed\xa2?'
p2364
tp2365
Rp2366
tp2367
a(VTCCATGAATGTGTTATAGTT
p2368
g2
(g6
S'x\xd24\xbb\xfd\xd8\xab?'
p2369
tp2370
Rp2371
tp2372
a(VCTTCAACAATTCCCTTGATG
p2373
g2
(g6
S'\xf3tl\x0cS\xbe\x9e?'
p2374
tp2375
Rp2376
tp2377
a(VTACACAACAGGAAAGACTTT
p2378
g2
(g6
S'\x11\xe1>\xf6\xa3\xf6\xbe?'
p2379
tp2380
Rp2381
tp2382
a(VTGAGTAAGTTTGACATTGCA
p2383
g2
(g6
S'F\x9b\xc7\x87\xf7a\xc9?'
p2384
tp2385
Rp2386
tp2387
a(VTCACTGACTGGACCCATGGG
p2388
g2
(g6
S'g\x0c\xfcs\x94\xed\xca?'
p2389
tp2390
Rp2391
tp2392
a(VTACCTCAGTGTTTCCTGCAG
p2393
g2
(g6
S'bE\xa8z{\xd5\xb9?'
p2394
tp2395
Rp2396
tp2397
a(VTCTTCTTACTGATATTTCAA
p2398
g2
(g6
S'n2\xc6a\x12\xe9\xd2?'
p2399
tp2400
Rp2401
tp2402
a(VTCATGTTGATCCATTCCTGT
p2403
g2
(g6
S'TY\x07LOT\xda?'
p2404
tp2405
Rp2406
tp2407
a(VACACTTCATCCACCCCACAC
p2408
g2
(g6
S'\xa0\xfc\x03\x03\r\xb8\xdc?'
p2409
tp2410
Rp2411
tp2412
a(VCAAAAGAGGGCTTTGTGCAG
p2413
g2
(g6
S'\x01\x87\xe8\xc1\xf1=\xab?'
p2414
tp2415
Rp2416
tp2417
a(VTCTAAAATCCCTGCTTCATA
p2418
g2
(g6
S'C?\xf0\x84\xa0[\xda?'
p2419
tp2420
Rp2421
tp2422
a(VTAATTCTGCTGTACTGCCTT
p2423
g2
(g6
S'?n>\xfc\x9c\x85\xab?'
p2424
tp2425
Rp2426
tp2427
a(VCTTGCAGAATCCAAGAAAAC
p2428
g2
(g6
S'W\x1f\x1c\xa7y\xab\xb6?'
p2429
tp2430
Rp2431
tp2432
a(VAGAAATTCTCAAGTGGTTGC
p2433
g2
(g6
S'X^\xbfNT0\xb1?'
p2434
tp2435
Rp2436
tp2437
a(VATCAATAAAAGCTGAGGTGA
p2438
g2
(g6
S'\xfb\xdb\xd5\x13\xac]\x9e?'
p2439
tp2440
Rp2441
tp2442
a(VTATCATGAGCGGCTGCTGAC
p2443
g2
(g6
S'22\x7f\x87\xcd\xc0\xc0?'
p2444
tp2445
Rp2446
tp2447
a(VGACAATAAAGAGGGTGTTGT
p2448
g2
(g6
S'\xb2\x05a\xc7\xaf\xba\xb8?'
p2449
tp2450
Rp2451
tp2452
a(VACCAGAACAGCTTCAGTGTC
p2453
g2
(g6
S'\xef\xcc\t|s\xef\x8d?'
p2454
tp2455
Rp2456
tp2457
a(VAAGGTATCCTTCAGAACCTT
p2458
g2
(g6
S'X\xba\xed\x08\xc8\x13\xa4?'
p2459
tp2460
Rp2461
tp2462
a(VACGTTGTCGTAAGCAAAGCC
p2463
g2
(g6
S'F8Q>I)\xcc?'
p2464
tp2465
Rp2466
tp2467
a(VGACTCTCAGGATAGTGCAGC
p2468
g2
(g6
S'\xe1,9\xaf0\x8b\xc0?'
p2469
tp2470
Rp2471
tp2472
a(VTTGGCCAGAGCCATCGCTAT
p2473
g2
(g6
S'\x19\x87-O}\xa6\xa4?'
p2474
tp2475
Rp2476
tp2477
a(VTAAAAAACCTACCGTAAACT
p2478
g2
(g6
S'cB9\xc2\x83\x15\xb0?'
p2479
tp2480
Rp2481
tp2482
a(VTTTGAAGTCCCACTTTCTCA
p2483
g2
(g6
S'#lWl\xbc\x89\xc2?'
p2484
tp2485
Rp2486
tp2487
a(VGATCTTGGCACAATGATAAC
p2488
g2
(g6
S'@\x08uO&\xc7\xd6?'
p2489
tp2490
Rp2491
tp2492
a(VGCAGTAGTTTCACTTCTAGC
p2493
g2
(g6
S'"~[6\x8e\xe6\xd2?'
p2494
tp2495
Rp2496
tp2497
a(VCCACACTCTGCACAATTCCA
p2498
g2
(g6
S'\xf6;\xaa Z\xa9\xe0?'
p2499
tp2500
Rp2501
tp2502
a(VCTGAAACTTTACGTAAATGT
p2503
g2
(g6
S'\xa0\x03QK\x01\x96\xc0?'
p2504
tp2505
Rp2506
tp2507
a(VAATTTGTTAAATCCAATCCA
p2508
g2
(g6
S'\xffb~\xba\xf6O\xdb?'
p2509
tp2510
Rp2511
tp2512
a(VGAACAGTAAGAAGCAGCGCC
p2513
g2
(g6
S'\x89U\x8b\xa1\xffR\xce?'
p2514
tp2515
Rp2516
tp2517
a(VCAAAAATATGGGGAAGCCTT
p2518
g2
(g6
S'y\x8a\xd8\x04qN\xad?'
p2519
tp2520
Rp2521
tp2522
a(VATCTTGGCACAATGATAACA
p2523
g2
(g6
S'ii\xf2\xbdT\xa6\xd3?'
p2524
tp2525
Rp2526
tp2527
a(VTTTAGAACAACATCTTATGT
p2528
g2
(g6
S'\x93`\xac\x9a\xe0\xce\xc6?'
p2529
tp2530
Rp2531
tp2532
a(VAGAAAGTGGGACTTCAAATA
p2533
g2
(g6
S'\x00\xa7\xaa\xe2#\xe8\xbb?'
p2534
tp2535
Rp2536
tp2537
a(VACCATTCTATAGGAATAAGA
p2538
g2
(g6
S'\r\xd7r\x80\xc3x\xe1?'
p2539
tp2540
Rp2541
tp2542
a(VCTAGTTTGGTCTGGGCTTGT
p2543
g2
(g6
S'\xcfM\xf1q\xd3\x8a\xbf?'
p2544
tp2545
Rp2546
tp2547
a(VCAGAAACAGTATTGGCTGAT
p2548
g2
(g6
S"\xc1\x8d'\x91c\xbc\xb9?"
p2549
tp2550
Rp2551
tp2552
a(VGCCTCTCTCCGGAAGGGAAA
p2553
g2
(g6
S'_\x17C\x0eQ\xd2\xb3?'
p2554
tp2555
Rp2556
tp2557
a(VTGGATCCTCCTCCACTCACA
p2558
g2
(g6
S'\xfa/\xd8Yi\xdc\xcb?'
p2559
tp2560
Rp2561
tp2562
a(VAATGTTTCTACAGGAGCATC
p2563
g2
(g6
S'+\x07s\xee\x88\xa0\xad?'
p2564
tp2565
Rp2566
tp2567
a(VGGTCTGGCCGACAGTTGGAT
p2568
g2
(g6
S'a\xff8\x0b\xc2O\xd6?'
p2569
tp2570
Rp2571
tp2572
a(VCAGAATTGCTTCTCTGCTGG
p2573
g2
(g6
S'1 <Y\xb8\x0c\xc5?'
p2574
tp2575
Rp2576
tp2577
a(VGAATGACCTGTCCCGGTAAC
p2578
g2
(g6
S'+y\xcd\x8f\xe5{\xa6?'
p2579
tp2580
Rp2581
tp2582
a(VTTCACAAGACCATTGTTAAG
p2583
g2
(g6
S'\xf0\x0ci@\xfc\xfd\xd4?'
p2584
tp2585
Rp2586
tp2587
a(VTGGCCAGAGCCATCGCTATA
p2588
g2
(g6
S'*\xd5$\xc9\x8a\x99\xce?'
p2589
tp2590
Rp2591
tp2592
a(VCGCATTGAGCATCCCACTGC
p2593
g2
(g6
S'L\xd3\xac\xdb\xbcK\x97?'
p2594
tp2595
Rp2596
tp2597
a(VCACGACAGGTGTGAAGAAAA
p2598
g2
(g6
S'V\x13o]d\x14\xaf?'
p2599
tp2600
Rp2601
tp2602
a(VTCTAGGGATCATAAAGCTGT
p2603
g2
(g6
S'z\xe3A\x064\t\xb6?'
p2604
tp2605
Rp2606
tp2607
a(VTTACATCATCATCTGCTGCT
p2608
g2
(g6
S'\xca\xe4\xffN\x8d\xc9\xd2?'
p2609
tp2610
Rp2611
tp2612
a(VACTGAAACTTTACGTAAATG
p2613
g2
(g6
S'\xf4\x07+\x97\x8bM\xb2?'
p2614
tp2615
Rp2616
tp2617
a(VGGCAGATACTGCTGTAGCTT
p2618
g2
(g6
S'q\x1c\xb5\x18\xf5v\x95?'
p2619
tp2620
Rp2621
tp2622
a(VGGATCGGCTGTTGTCCTTAA
p2623
g2
(g6
S'\x17\xc27;\xbc\xe1\xcb?'
p2624
tp2625
Rp2626
tp2627
a(VAGCAGTAACTCTTTGTCGTT
p2628
g2
(g6
S'\xa9\xfc\xec\xf9\xfaW\xa6?'
p2629
tp2630
Rp2631
tp2632
a(VTACCTTTAATTTAAAAATCG
p2633
g2
(g6
S'\xc6|\xfc\x826i\xa4?'
p2634
tp2635
Rp2636
tp2637
a(VGAAGGGTCACCATGATGAAT
p2638
g2
(g6
S'/I\xbeB\x81\x9f\xae?'
p2639
tp2640
Rp2641
tp2642
a(VAAAAGGCAAGAAATGGAATC
p2643
g2
(g6
S'S]\x0cZR2\x9c?'
p2644
tp2645
Rp2646
tp2647
a(VTATTCCAACGTGCAAGTGGC
p2648
g2
(g6
S'WG:ux\x97\xc5?'
p2649
tp2650
Rp2651
tp2652
a(VTGATTTACTGCATCACTTGT
p2653
g2
(g6
S'\x81\x0cH\xbb\x04\xf9\xc2?'
p2654
tp2655
Rp2656
tp2657
a(VAATTACAGGGCTCGTCCAAC
p2658
g2
(g6
S'\x95z\xc0\x839V\xab?'
p2659
tp2660
Rp2661
tp2662
a(VACCAAGCAACTTCTTAGTGT
p2663
g2
(g6
S'\xb4e\xda\xadN\x16\xb6?'
p2664
tp2665
Rp2666
tp2667
a(VGTTGAACTTCGAAATATGTT
p2668
g2
(g6
S'\xbe\x94\xc6\xd7\xba\xae\xc5?'
p2669
tp2670
Rp2671
tp2672
a(VCCTGGAGCCTCTCTCCGGAA
p2673
g2
(g6
S'\xd0\xd1c\xc1\xe8\xc5\xd9?'
p2674
tp2675
Rp2676
tp2677
a(VACAGAAGAAGCTGACCATAG
p2678
g2
(g6
S'\x8e\xb1\xb03\xc7\xaa\xc0?'
p2679
tp2680
Rp2681
tp2682
a(VTGGCCGAATCTTGGTGTGTT
p2683
g2
(g6
S'It\xe0\xe6\x9e\xbf\x94?'
p2684
tp2685
Rp2686
tp2687
a(VGGAGTGGCACTGCAAGCAAA
p2688
g2
(g6
S'\x0f!\x0c\x0e\xbf\xb3\xe1?'
p2689
tp2690
Rp2691
tp2692
a(VGCAGGAGGGTAAGGAGATGT
p2693
g2
(g6
S'\xdeA\xe4\xdbX\xdc\xbc?'
p2694
tp2695
Rp2696
tp2697
a(VTACTTTGCAGGTAAGATGTT
p2698
g2
(g6
S'\x05\x15\xe8"\xa4\xbf\xb3?'
p2699
tp2700
Rp2701
tp2702
a(VAAAGGCAAGAAATGGAATCA
p2703
g2
(g6
S'\xa6\xf95"\xb0#\xa2?'
p2704
tp2705
Rp2706
tp2707
a(VAGGCGAATGTCCCATGTGAG
p2708
g2
(g6
S'\xfb\x15\xe4\xc7\x95C\xc9?'
p2709
tp2710
Rp2711
tp2712
a(VTGGACCCATGGGTGGGCTAT
p2713
g2
(g6
S';D*,\xbb\xd7\x8a?'
p2714
tp2715
Rp2716
tp2717
a(VAAGATGTTTGGTATTGTGGT
p2718
g2
(g6
S'\xff(J?j\xde\xa7?'
p2719
tp2720
Rp2721
tp2722
a(VGAGTCCAGAGGAAGTATTTA
p2723
g2
(g6
S';\xed\xd59\x99G\xba?'
p2724
tp2725
Rp2726
tp2727
a(VGTCTCTCTCTCATAGGAGCC
p2728
g2
(g6
S'\xc1\xc38\xa8\x92\xfb\xc2?'
p2729
tp2730
Rp2731
tp2732
a(VTGACTGGTATTTCCACTAGA
p2733
g2
(g6
S'\x8c\xe2H\xac4\xc5\xda?'
p2734
tp2735
Rp2736
tp2737
a(VGCAGGAAACGTGGCATGTCT
p2738
g2
(g6
S'\xb8\x9c\xab\xe3\x81\x93\xad?'
p2739
tp2740
Rp2741
tp2742
a(VCGAATGTCCCATGTGAGTGG
p2743
g2
(g6
S'\x05\xf6\x8e\xd6\xf5d\xd8?'
p2744
tp2745
Rp2746
tp2747
a(VCCTGCTTCTTTACAGGTTAT
p2748
g2
(g6
S'\\\xb0z\xde\x92>\xbb?'
p2749
tp2750
Rp2751
tp2752
a(VACCTTTAATTTAAAAATCGA
p2753
g2
(g6
S'\xb1\xdf\xd1\xce\x82\x93\xd5?'
p2754
tp2755
Rp2756
tp2757
a(VCTGGCTTCCTTTGTGCCCTT
p2758
g2
(g6
S'N\xe3\xb64\xb9\xc3\xb7?'
p2759
tp2760
Rp2761
tp2762
a(VCTGGGCTTGTCGGCAAATCG
p2763
g2
(g6
S'\xaco\xa7G/w\xac?'
p2764
tp2765
Rp2766
tp2767
a(VGTCTGACACAGACTCCCTAC
p2768
g2
(g6
S'pq\xe5\xd0H\xe2\xc5?'
p2769
tp2770
Rp2771
tp2772
a(VATTGTGGTGGGGATTCTTCA
p2773
g2
(g6
S'\xbf\xb7\xc3\x08\xdc\x18\xc5?'
p2774
tp2775
Rp2776
tp2777
a(VTGTTCGTGTGCTTGGGAATA
p2778
g2
(g6
S'\xd8\xbb\xf8\x08 \xa8w?'
p2779
tp2780
Rp2781
tp2782
a(VCCAAAAGCCAAAATGGAAGA
p2783
g2
(g6
S'&D\x93\xa0\xcc\xfa\xc7?'
p2784
tp2785
Rp2786
tp2787
a(VTCCACACCATCTCCTTCTTC
p2788
g2
(g6
S'\xb8\xee\xde8\xc6\xa1\xa5?'
p2789
tp2790
Rp2791
tp2792
a(VTTGCTAGATAATCATACTGA
p2793
g2
(g6
S'&\x87\x1aH\xc1\x1a\xb2?'
p2794
tp2795
Rp2796
tp2797
a(VTGAAGTGAATACACAGAGCG
p2798
g2
(g6
S'\xaf\xe7\x1aO\xcc\xc6\xdf?'
p2799
tp2800
Rp2801
tp2802
a(VAAAAATTCTAACGTGAGGTG
p2803
g2
(g6
S'\xffT\x98\x9b\xc8|\xb5?'
p2804
tp2805
Rp2806
tp2807
a(VATGTGGGTGCTGTTGTGATG
p2808
g2
(g6
S'\xde9\x18\xda\xce\xf1\xc2?'
p2809
tp2810
Rp2811
tp2812
a(VCAAACAGGTGGCAGGAAACG
p2813
g2
(g6
S'\xd2.\xfa\x98|\x84\xd5?'
p2814
tp2815
Rp2816
tp2817
a(VGTAATTACCTTATTAAGAAG
p2818
g2
(g6
S'\xe5m`\x03\x06\x8f\xe7?'
p2819
tp2820
Rp2821
tp2822
a(VGAGATATTCCAACGTGCAAG
p2823
g2
(g6
S'\xc8F\xe8\xb3x\x1b\xe2?'
p2824
tp2825
Rp2826
tp2827
a(VACCAGTGCAACAGGTGGCTT
p2828
g2
(g6
S'\xf3\x9c\xa1v\xc7{\xb5?'
p2829
tp2830
Rp2831
tp2832
a(VAATTCTGTAGAAGTTATTTC
p2833
g2
(g6
S'vB\xbf!\x1a\xbe\xc3?'
p2834
tp2835
Rp2836
tp2837
a(VAGCGATTGCTAGGCCCGGTA
p2838
g2
(g6
S'EdX\xc5\x1b\x99\x8f?'
p2839
tp2840
Rp2841
tp2842
a(VAAAGTGCGCAAACAGGTGGC
p2843
g2
(g6
S'9@G\xe3\x041\xb9?'
p2844
tp2845
Rp2846
tp2847
a(VTTACTGTAGCTTTATTCAGT
p2848
g2
(g6
S'2\xfb\xd7\x1a\x93\x83\xcf?'
p2849
tp2850
Rp2851
tp2852
a(VAAATGACATTTATTATGCTT
p2853
g2
(g6
S'G\x08W\x8c/\xa4\xc0?'
p2854
tp2855
Rp2856
tp2857
a(VACGTTCACTGACTGGACCCA
p2858
g2
(g6
S'\xa0\x14\xbf\xbf\xc7t\xcb?'
p2859
tp2860
Rp2861
tp2862
a(VGGGAAAAGGGAACTCCTCTA
p2863
g2
(g6
S'\xe8N,\xc7\x96\xab\xb0?'
p2864
tp2865
Rp2866
tp2867
a(VGTTGCAGGGATGGATTATAT
p2868
g2
(g6
S'\x85\x0e\x10\x85\xfcW\xb0?'
p2869
tp2870
Rp2871
tp2872
a(VAGTCTTTCCTTCATAAGTGA
p2873
g2
(g6
S'M\xcb\xb7Z\x01W\xe2?'
p2874
tp2875
Rp2876
tp2877
a(VCTTAAGAAATAACTGTGATT
p2878
g2
(g6
S')\xb6\x87_\xdf\xbe\xa1?'
p2879
tp2880
Rp2881
tp2882
a(VTGCGGGAAATATTGATCTGC
p2883
g2
(g6
S'\xa0`x\x85;\xa0\x8f?'
p2884
tp2885
Rp2886
tp2887
a(VTGTGAAATTGGTTTCAAGCA
p2888
g2
(g6
S'\xa8\x87\x9be\xac<\xb9?'
p2889
tp2890
Rp2891
tp2892
a(VAACCAGTGCAACAGGTGGCT
p2893
g2
(g6
S'\x147%[\x88\xce\x91?'
p2894
tp2895
Rp2896
tp2897
a(VGGATGTGATATTCCTTCTAG
p2898
g2
(g6
S'>\x8b6\xabd\x1e\xb7?'
p2899
tp2900
Rp2901
tp2902
a(VCTAAGCTGGCTCTGCAGTGC
p2903
g2
(g6
S'e!#h\x18\xb3\x8b?'
p2904
tp2905
Rp2906
tp2907
a(VGGACTGGTCTGGCCGACAGT
p2908
g2
(g6
S'\xc3U\xa5\xfa\xbcl\xda?'
p2909
tp2910
Rp2911
tp2912
a(VTGGGCTTGTCGGCAAATCGG
p2913
g2
(g6
S'\xf6\x8d\xceJq\x8d\xc1?'
p2914
tp2915
Rp2916
tp2917
a(VCCAGAACAGCTTCAGTGTCA
p2918
g2
(g6
S'Em_c>p\xcb?'
p2919
tp2920
Rp2921
tp2922
a(VCAACAAGAGCTCTTGGTTGC
p2923
g2
(g6
S'/t\xab;\xa4\x85\x88?'
p2924
tp2925
Rp2926
tp2927
a(VGGCAACCTATAGCCCACCCA
p2928
g2
(g6
S'\xb4-\xc8ke\xcf\xcd?'
p2929
tp2930
Rp2931
tp2932
a(VGCCACAGGTTTGTGCTCTGG
p2933
g2
(g6
S'!\x02\xa1\x04\x1c\x13\xb8?'
p2934
tp2935
Rp2936
tp2937
a(VTCACAACACCCCCCAAAATG
p2938
g2
(g6
S'&\x1605\xcd\x91\xd0?'
p2939
tp2940
Rp2941
tp2942
a(VAACTTTAACTTTGCATTGGT
p2943
g2
(g6
S'\xfb\xcc\x9b\xbbD\x92\xa9?'
p2944
tp2945
Rp2946
tp2947
a(VCGTGCATTTCTGTAGGTATA
p2948
g2
(g6
S'\x0e\xa3P\xb1\x92\xd8\xab?'
p2949
tp2950
Rp2951
tp2952
a(VGGATTTCCTGGCTCGGGGAC
p2953
g2
(g6
S'_g\xc97i\x87\xa4?'
p2954
tp2955
Rp2956
tp2957
a(VTGATGAAAACAACATGAATA
p2958
g2
(g6
S'\xd7\xd9\x81T9\xd6\xb1?'
p2959
tp2960
Rp2961
tp2962
a(VAGGTATCCTTCAGAACCTTT
p2963
g2
(g6
S'Y\xa5\x1a\x14\xd2|\xd0?'
p2964
tp2965
Rp2966
tp2967
a(VTTCATCAAAACCAGTGCAAC
p2968
g2
(g6
S'\x02\xd9\xaez\x07\x12\xa3?'
p2969
tp2970
Rp2971
tp2972
a(VCCAAGAGCTCTTGTTGTCTT
p2973
g2
(g6
S'\x19\x97\x815\x94\xfb\xa8?'
p2974
tp2975
Rp2976
tp2977
a(VGCAACCTATAGCCCACCCAT
p2978
g2
(g6
S'\xdc\x1d\x7f\x8d\x17g\xe6?'
p2979
tp2980
Rp2981
tp2982
a(VTAACTATCCAAAAGCCAAAA
p2983
g2
(g6
S'\xf3o\xcf\xa7\x19\x08\xc5?'
p2984
tp2985
Rp2986
tp2987
a(VTATCTGCTTCCTCACAGAGG
p2988
g2
(g6
S'\xb82\x1dD\xafb\xbf?'
p2989
tp2990
Rp2991
tp2992
a(VTGGTTACTCTGTTTGATTCT
p2993
g2
(g6
S'\xee\xdaia\xd2\xbc\xb8?'
p2994
tp2995
Rp2996
tp2997
a(VACTGTTCTTGCAACAATAGC
p2998
g2
(g6
S't\x96Y\x84b\xab\xc7?'
p2999
tp3000
Rp3001
tp3002
a(VGTTGAACTCTCCCCTACCAC
p3003
g2
(g6
S'3[\xec\xd5K\xbc\xce?'
p3004
tp3005
Rp3006
tp3007
a(VTCCACTGTTACAGTGGCCAG
p3008
g2
(g6
S'(\xd6 \x01\xe0\xae\xcf?'
p3009
tp3010
Rp3011
tp3012
a(VCTCATGGTTACACACCATTA
p3013
g2
(g6
S'\xe4\x11?s\x94\x8b\x94?'
p3014
tp3015
Rp3016
tp3017
a(VAGATGTTTGGTATTGTGGTG
p3018
g2
(g6
S'\x0c\xf7\x8fZh\xb4\xb9?'
p3019
tp3020
Rp3021
tp3022
a(VATGTCCCATGTGAGTGGAGG
p3023
g2
(g6
S'h\xb3\xf9\x9e\xe2\xcf\xc2?'
p3024
tp3025
Rp3026
tp3027
a(VGCTGGCTCTGCAGTGCAGGA
p3028
g2
(g6
S'\xc2&5+\x10j\xe6?'
p3029
tp3030
Rp3031
tp3032
a(VATCTCCCAAAATGTTTCTAC
p3033
g2
(g6
S'\x07\xd5\xf9\xfc\x9f\xdf\xa3?'
p3034
tp3035
Rp3036
tp3037
a(VGTCCATGTGTGGAAGCTCTA
p3038
g2
(g6
S'\x1e,\xdd\th\xf5\xc5?'
p3039
tp3040
Rp3041
tp3042
a(VATCTATTCAAGCAAAAATAT
p3043
g2
(g6
S'h\xc2E\xda\x05\x04\xb0?'
p3044
tp3045
Rp3046
tp3047
a(VCGATCCATAAATTTGCTGAC
p3048
g2
(g6
S'\xbfg\xe7\xde\n[\xd8?'
p3049
tp3050
Rp3051
tp3052
a(VTTTCAGCTTCCAATAAAAAC
p3053
g2
(g6
S'n\x90lU\xe2\x1f\xc9?'
p3054
tp3055
Rp3056
tp3057
a(VTCCGTTCCAGTTACCGGGAC
p3058
g2
(g6
S'\x83!\xea\xbf\x80\xbe\xa7?'
p3059
tp3060
Rp3061
tp3062
a(VTTTGCCAAGAGATGAAATTT
p3063
g2
(g6
S'7\x90^o\xc3q\x98?'
p3064
tp3065
Rp3066
tp3067
a(VTCATGGAATTAGAAAGGTTA
p3068
g2
(g6
S'\x10\xff\x97\x08\xa7G\xc3?'
p3069
tp3070
Rp3071
tp3072
a(VACCTCAGTGTTTCCTGCAGT
p3073
g2
(g6
S'\x93d\xae\xf0T\x9e\xc8?'
p3074
tp3075
Rp3076
tp3077
a(VGCAGAGAAGCAATTCTGGCC
p3078
g2
(g6
S'\x00\x99\xdd`\x96 \xc7?'
p3079
tp3080
Rp3081
tp3082
a(VTGCAGGAGGGTAAGGAGATG
p3083
g2
(g6
S'\xc6\x94$\xdc\x1f\x80\x84?'
p3084
tp3085
Rp3086
tp3087
a(VTACACCTGTCAGCAAATTTA
p3088
g2
(g6
S'`\xf9\xd5\x17g^\xb6?'
p3089
tp3090
Rp3091
tp3092
a(VGGTAAGGAGATGTGGGAGTC
p3093
g2
(g6
S'\t\xec\xdeH\xa82w?'
p3094
tp3095
Rp3096
tp3097
a(VGGGCTTGTCGGCAAATCGGG
p3098
g2
(g6
S';\x10\x87\xdctJ\xe5?'
p3099
tp3100
Rp3101
tp3102
a(VCACATCCTACCCCGTAAAAA
p3103
g2
(g6
S'\x10p;F\x0fB\xc4?'
p3104
tp3105
Rp3106
tp3107
a(VAAGGAGATGTGGGAGTCAGG
p3108
g2
(g6
S'*\xbc\xb2\xa8\xdb\x9b\xc7?'
p3109
tp3110
Rp3111
tp3112
a(VTCCCAAGCCACCTGTTGCAC
p3113
g2
(g6
S'\xa2\x83\xb9\xd3Y\n\xa7?'
p3114
tp3115
Rp3116
tp3117
a(VTCCTGGCTCGGGGACTGGTC
p3118
g2
(g6
S'\xcd\xec\xd7\xc3\xb5\xdf\x98?'
p3119
tp3120
Rp3121
tp3122
a(VTTCAAGCCCCTTTCGATTCT
p3123
g2
(g6
S'm\xfe\x0e.\xe5\xc8\x8f?'
p3124
tp3125
Rp3126
tp3127
a(VATTAAGAAGTGGCTGTAATT
p3128
g2
(g6
S'7u]yB\x0f\xb9?'
p3129
tp3130
Rp3131
tp3132
a(VAAGCAAGTACTTACATCAAT
p3133
g2
(g6
S'/S\x9dR\x81\xba\xb0?'
p3134
tp3135
Rp3136
tp3137
a(VCAGAAATTCTCAAGTGGTTG
p3138
g2
(g6
S'.\xb4\x96\xa9\x19\xf7\xc5?'
p3139
tp3140
Rp3141
tp3142
a(VGTACAGGGCCACTTCTAGTT
p3143
g2
(g6
S'\x14 \x8e\x9e\xf0\xac\xd1?'
p3144
tp3145
Rp3146
tp3147
a(VCAGAGCGTGGCCTACTTAGC
p3148
g2
(g6
S'\x1e\x96z\xd4g \xb2?'
p3149
tp3150
Rp3151
tp3152
a(VGATTTAACAAATTTGGATCT
p3153
g2
(g6
S'[\xbbRnY\xc0\x8b?'
p3154
tp3155
Rp3156
tp3157
a(VAGGCAGGTACGTGTCAATCA
p3158
g2
(g6
S'\x88\xd4\xd5\x99R\xc9\xb7?'
p3159
tp3160
Rp3161
tp3162
a(VCGGCTGCTGACTGGCCTCAA
p3163
g2
(g6
S'\x8b\x17R\x18p\xa3\xaa?'
p3164
tp3165
Rp3166
tp3167
a(VGGAGTCAAAAAACTTGCTGA
p3168
g2
(g6
S'\xd7u\x17D~\x7f\xd3?'
p3169
tp3170
Rp3171
tp3172
a(VGGGAAGATACACATGCAAAA
p3173
g2
(g6
S'\x1c;\xb05\xbe\x03\xdb?'
p3174
tp3175
Rp3176
tp3177
a(VTGTTGTTCTAAAGTAGGAGT
p3178
g2
(g6
S'\xcdT\xcac\xb4\xeb\xca?'
p3179
tp3180
Rp3181
tp3182
a(VTTTAAAGAATGTTAACAATA
p3183
g2
(g6
S'\x89k\xddO\x8b\x96\xae?'
p3184
tp3185
Rp3186
tp3187
a(VACTGCTGTAGCTTTGGCTTC
p3188
g2
(g6
S'7\xac\xde\x1e\xda\x80\x95?'
p3189
tp3190
Rp3191
tp3192
a(VGGAAGATACACATGCAAAAT
p3193
g2
(g6
S'ch\x84\x9d\xb3\x1c\xb6?'
p3194
tp3195
Rp3196
tp3197
a(VGGCAACACTTCTTGCATACC
p3198
g2
(g6
S'\xe8\x0e\x02\xf5\xdd\xe2~?'
p3199
tp3200
Rp3201
tp3202
a(VAGAAGCTTTGTTGGAGATCA
p3203
g2
(g6
S'k\xb2\x16\x04.F\x87?'
p3204
tp3205
Rp3206
tp3207
a(VTAGCTTTATTCAGTAGGGAG
p3208
g2
(g6
S'\x05\x91\xe7(wG\xcb?'
p3209
tp3210
Rp3211
tp3212
a(VTGCTGTACTGCCTTGGGTTT
p3213
g2
(g6
S'\xc0\xb1\xd4k\x94\xa4\x98?'
p3214
tp3215
Rp3216
tp3217
a(VGCAACTTCCCAGCATTCCCC
p3218
g2
(g6
S'\xcf\xd0!kkV\xe0?'
p3219
tp3220
Rp3221
tp3222
a(VCGTGCAACATAATAAAAAAT
p3223
g2
(g6
S'\xa8\xe3\xc4ffW\xd5?'
p3224
tp3225
Rp3226
tp3227
a(VGGCTTCTGGAAATGTGAAAT
p3228
g2
(g6
S'\xd9\xb8\xaa^\x11\x0b\x93?'
p3229
tp3230
Rp3231
tp3232
a(VGATATATCCTGGATTATTTC
p3233
g2
(g6
S'\xb0\x83\xbfi>\n\xad?'
p3234
tp3235
Rp3236
tp3237
a(VCCAAACAGCAAGTAAAATTT
p3238
g2
(g6
S'\x9f4\xe1R&\xd9\xc5?'
p3239
tp3240
Rp3241
tp3242
a(VCTGGTTTCTTCATCAATTCC
p3243
g2
(g6
S'\x89\x80\x0b\xfe\xf3>\xab?'
p3244
tp3245
Rp3246
tp3247
a(VACCACTGGCCACTGTAACAG
p3248
g2
(g6
S'#/u\xd4\xf4\x00\xd3?'
p3249
tp3250
Rp3251
tp3252
a(VTTGATTGACACGTACCTGCC
p3253
g2
(g6
S'`D\xce\x07sW\xb5?'
p3254
tp3255
Rp3256
tp3257
a(VCAAGAGCTCTTGTTGTCTTT
p3258
g2
(g6
S'\x15P"n\xc0\xfa\xb5?'
p3259
tp3260
Rp3261
tp3262
a(VTTGCTTCTGCACTTGGCTTG
p3263
g2
(g6
S'\xb3\x80\xf2?E\x8a\xcb?'
p3264
tp3265
Rp3266
tp3267
a(VGTCTGAATCAAATGTTCTCT
p3268
g2
(g6
S"\xf4'}c\x00\x8f\x99?"
p3269
tp3270
Rp3271
tp3272
a(VCTCACAGAGGTGGCGGAAAC
p3273
g2
(g6
S'\xe8orZ\x18k\x89?'
p3274
tp3275
Rp3276
tp3277
a(VCCCTGACACTGAAGCTGTTC
p3278
g2
(g6
S'\x94\x8b\\0\xeb\xd7\x87?'
p3279
tp3280
Rp3281
tp3282
a(VGTTAGCAGTTATAAATAGCC
p3283
g2
(g6
S'\n\xb2L\\\x1a\x81\xcf?'
p3284
tp3285
Rp3286
tp3287
a(VCTCTGCAGTGCAGGAGGGTA
p3288
g2
(g6
S'\x16l\xe1\x81\x1a!\x92?'
p3289
tp3290
Rp3291
tp3292
a(VTACTGTAGCTTTATTCAGTA
p3293
g2
(g6
S'\x9c5\xce_Nt\xd1?'
p3294
tp3295
Rp3296
tp3297
a(VGCTGTACTGCCTTGGGTTTC
p3298
g2
(g6
S'q\x89\x14\xe4\x16\xdc\x8f?'
p3299
tp3300
Rp3301
tp3302
a(VTACCTGGCCATCTTCCATTT
p3303
g2
(g6
S'\x17\xa7s\xa8S\xdc\xa7?'
p3304
tp3305
Rp3306
tp3307
a(VTGGGTGGGCTATAGGTTGCC
p3308
g2
(g6
S'$"\x04\xfd\xe8H\xb2?'
p3309
tp3310
Rp3311
tp3312
a(VAAAATTAAAACGACTCCTGA
p3313
g2
(g6
S'\xe5(a"\xb5;\xb0?'
p3314
tp3315
Rp3316
tp3317
a(VCTCACCTAAATTTCATCTCT
p3318
g2
(g6
S'q\xf9\xb4/E^s?'
p3319
tp3320
Rp3321
tp3322
a(VAGCTACAGTAAAAGAAAAAA
p3323
g2
(g6
S'j\xd8\xea\xd0\xbbA\xb9?'
p3324
tp3325
Rp3326
tp3327
a(VCCTTACCAGTTCAAAGTTTG
p3328
g2
(g6
S'\xfd8\x97k\x9c\x90\xb7?'
p3329
tp3330
Rp3331
tp3332
a(VTGGATTGGATTTAACAAATT
p3333
g2
(g6
S'I\x87\xdd07\x03\xa7?'
p3334
tp3335
Rp3336
tp3337
a(VGTCCAGGCTCATGGATTTCC
p3338
g2
(g6
S'\x0bm\xad\xed\xf5\x07\x8d?'
p3339
tp3340
Rp3341
tp3342
a(VAACCAAAGAAAACTTGTATT
p3343
g2
(g6
S'Y\x89\x07\x01\xea\xe7\xa1?'
p3344
tp3345
Rp3346
tp3347
a(VTTCAATTTGTTAAATAGCAT
p3348
g2
(g6
S'\xf2\x8f\x1c\xbb\xd4`\xc7?'
p3349
tp3350
Rp3351
tp3352
a(VGGAATTAGAAAGGTTAAGGT
p3353
g2
(g6
S'7\x85|m\x89\x1e\xd6?'
p3354
tp3355
Rp3356
tp3357
a(VAGTCAGGAGGGATTCTTCAC
p3358
g2
(g6
S'(c\xa7\x18\x1a\xe1\xc0?'
p3359
tp3360
Rp3361
tp3362
a(VATGCTGGGAAGTTGCAAGTG
p3363
g2
(g6
S'{\xf4|\x89U\xdc\xa7?'
p3364
tp3365
Rp3366
tp3367
a(VTGGGAAATCTTACCTGTTGC
p3368
g2
(g6
S'\xb9\x1a\xd9\x95\x96\x91\xa5?'
p3369
tp3370
Rp3371
tp3372
a(VAGCAGAAACTGATTATGAAA
p3373
g2
(g6
S'[\xa5\x8ej\xe5\x99\xb2?'
p3374
tp3375
Rp3376
tp3377
a(VACACTGGAAAAATGTCTTGC
p3378
g2
(g6
S'\xf5\x94\xebYO.\x8f?'
p3379
tp3380
Rp3381
tp3382
a(VCATCTATTCAAGCAAAAATA
p3383
g2
(g6
S'\x12&C\x90\xae\x92\xc3?'
p3384
tp3385
Rp3386
tp3387
a(VGTCAGCAATATGATGTCAAC
p3388
g2
(g6
S'ArL\xc5\xaf`\xca?'
p3389
tp3390
Rp3391
tp3392
a(VGAGTTCGTCCACTGTTACAG
p3393
g2
(g6
S'\xcc\xf6\xd7\xe1\x9e\xdd\xd5?'
p3394
tp3395
Rp3396
tp3397
a(VGCCAAACAGCAAGTAAAATT
p3398
g2
(g6
S'b\x98b\xfa\x9d\xa7\xaa?'
p3399
tp3400
Rp3401
tp3402
a(VTGAAGAAAATGGCAGATTTC
p3403
g2
(g6
S'`a\x9d7\t6\x96?'
p3404
tp3405
Rp3406
tp3407
a(VAGCTGGCTCTGCAGTGCAGG
p3408
g2
(g6
S'l1\x12\xb6\xac\xb6\xc1?'
p3409
tp3410
Rp3411
tp3412
a(VCGAAAAGCTCTTGCTGGCCA
p3413
g2
(g6
S'\x12\xb73\xe1\xd1%\xcb?'
p3414
tp3415
Rp3416
tp3417
a(VCTCCAGCAGAGAAGCAATTC
p3418
g2
(g6
S'\xef\xcc\xcc\x18[\x12\x84?'
p3419
tp3420
Rp3421
tp3422
a(VTTCTGCTACTCTCCTCATTT
p3423
g2
(g6
S'\xd2ZM\xae\x94+\x85?'
p3424
tp3425
Rp3426
tp3427
a(VGTCCATGGTGGTTGATCTTA
p3428
g2
(g6
S'{q\xb4s2"\xa0?'
p3429
tp3430
Rp3431
tp3432
a(VCGCTTCTTTGCTTCTGCACT
p3433
g2
(g6
S'\x0fD\x0c\xf7nL\x8f?'
p3434
tp3435
Rp3436
tp3437
a(VGGACATGGGGCAACCTTCTC
p3438
g2
(g6
S'\x17p\xcc;\x19\xdf\x89?'
p3439
tp3440
Rp3441
tp3442
a(VCAAATTCTGTGCCTTGTTGA
p3443
g2
(g6
S'\x19\x8aM\xc1\xa0 \xb0?'
p3444
tp3445
Rp3446
tp3447
a(VGCACTTGAGAGTTGCTTAAA
p3448
g2
(g6
S'\xe6\x1b\xc2\x12\xbe\xe0\xa2?'
p3449
tp3450
Rp3451
tp3452
a(VTTCTTTATTTATAGGCATTT
p3453
g2
(g6
S'\x9f\x03\xfbJH\xed{?'
p3454
tp3455
Rp3456
tp3457
a(VATGCTCCTGTAGAAACATTT
p3458
g2
(g6
S'w\x8e\xb7K\xd1\x80\xb2?'
p3459
tp3460
Rp3461
tp3462
a(VACTGAGTCTCAAAACTTGCT
p3463
g2
(g6
S'\x12\xf0\xbaj\xdd\x07\xc8?'
p3464
tp3465
Rp3466
tp3467
a(VCTAACTGCGCAACCTTCTTT
p3468
g2
(g6
S'\xda\xca{7>\x9c\xc0?'
p3469
tp3470
Rp3471
tp3472
a(VTCACAACAACCAACACTTTA
p3473
g2
(g6
S'\x88\x80io\xf5\xbe\xbc?'
p3474
tp3475
Rp3476
tp3477
a(VCCTCAAACTTTGAACTGGTA
p3478
g2
(g6
S'\r\xf9<\x86\x94\r\xb3?'
p3479
tp3480
Rp3481
tp3482
a(VGCAGAAACTGATTATGAAAT
p3483
g2
(g6
S'C\xc7\x04\xb8\xfdK\xd8?'
p3484
tp3485
Rp3486
tp3487
a(VGTGATCACAATTCGTAATAA
p3488
g2
(g6
S'\x03X=\x90WH\xa4?'
p3489
tp3490
Rp3491
tp3492
a(VTAAATTTCTTCTTAAAAATA
p3493
g2
(g6
S'AfqC\xaf\xe6\x94?'
p3494
tp3495
Rp3496
tp3497
a(VTTACTGACCTGGGGAATGCT
p3498
g2
(g6
S'\x89\xad\xb2LE^\xdd?'
p3499
tp3500
Rp3501
tp3502
a(VTTAAATTTAAATGCTGTTTC
p3503
g2
(g6
S'\xeb\xe4\xe6\xfdz\xe3\xa3?'
p3504
tp3505
Rp3506
tp3507
a(VTTTACTGACCTGGGGAATGC
p3508
g2
(g6
S'\xfb\x84\x81!\x8aM\xa6?'
p3509
tp3510
Rp3511
tp3512
a(VACCGGTGCCATTCGTATTGC
p3513
g2
(g6
S'\xb0|h\xaf\xd6:\xa0?'
p3514
tp3515
Rp3516
tp3517
a(VAACAGTGGACGAACTCGCCA
p3518
g2
(g6
S'O\xb4R\xd8\xaa\x1c\xe8?'
p3519
tp3520
Rp3521
tp3522
a(VGATACATTTATTTACTTTGC
p3523
g2
(g6
S'U{\x8f5N\x03\xad?'
p3524
tp3525
Rp3526
tp3527
a(VGGCTCCTAAAAGGCAAGAAA
p3528
g2
(g6
S'{\xd1G\xae\xd5}\xbe?'
p3529
tp3530
Rp3531
tp3532
a(VGCACTTGGCTTGCGGATCCG
p3533
g2
(g6
S'\xf8/\x18u\x10\xb8\xe6?'
p3534
tp3535
Rp3536
tp3537
a(VTGAAACAATGATGTTAAATC
p3538
g2
(g6
S'\xd8\xa5\xf2\xe8\xd9\xbb\xa9?'
p3539
tp3540
Rp3541
tp3542
a(VGTGCAGAAGCAAAGAAGCGC
p3543
g2
(g6
S'\xdd\xae\xfa\xd0\xc38\xd1?'
p3544
tp3545
Rp3546
tp3547
a(VTTAAAAAATTCAGGCTCTGC
p3548
g2
(g6
S'\xde\xd9\xec\x82\xa0\xa7\xb3?'
p3549
tp3550
Rp3551
tp3552
a(VAGGAGATGTGGGAGTCAGGA
p3553
g2
(g6
S'\x97Ak4o\x0b\xd9?'
p3554
tp3555
Rp3556
tp3557
a(VGAACCCTTACGTTCACTGAC
p3558
g2
(g6
S'O\xfd?+\x89\x1c\xcd?'
p3559
tp3560
Rp3561
tp3562
a(VTTAATTCTGCTGTACTGCCT
p3563
g2
(g6
S'\x9dS\x96\x0f\xab9\xc1?'
p3564
tp3565
Rp3566
tp3567
a(VACTGGCTTCCTTTGTGCCCT
p3568
g2
(g6
S'9\xe4\x8a~yp\xa0?'
p3569
tp3570
Rp3571
tp3572
a(VTCATATGGCTTTGCATAATA
p3573
g2
(g6
S'\xa9\xaa:%\xcc\xa6\xbc?'
p3574
tp3575
Rp3576
tp3577
a(VTTTCTTCATCAATTCCAGGC
p3578
g2
(g6
S'\x9b\xff\'\xe4"5\xcd?'
p3579
tp3580
Rp3581
tp3582
a(VGGTCAGCCGCTTCGACGAGC
p3583
g2
(g6
S'6\xb3\xc1\x82.\xf3\xc1?'
p3584
tp3585
Rp3586
tp3587
a(VCTGTTACAGTGGCCAGTGGT
p3588
g2
(g6
S'"\x90\x9ccx\xa0\xb6?'
p3589
tp3590
Rp3591
tp3592
a(VAATGGCTTGTGGCGGTTTGC
p3593
g2
(g6
S'\xdc\xf4%#\x80~\xbc?'
p3594
tp3595
Rp3596
tp3597
a(VCCTCTTGAGAATGGCTTACT
p3598
g2
(g6
S'\xbfML\x05\x7f9\xa4?'
p3599
tp3600
Rp3601
tp3602
a(VCACATTGCCGTCACTTATGA
p3603
g2
(g6
S'\x11\xcc\xdbUk\x08\xb3?'
p3604
tp3605
Rp3606
tp3607
a(VATTACAGCCACTTCTTAATA
p3608
g2
(g6
S'$5}\x0e\xdd\x80\xb1?'
p3609
tp3610
Rp3611
tp3612
a(VTGTTACAGTGGCCAGTGGTA
p3613
g2
(g6
S'~\x18h\x11fg\xcb?'
p3614
tp3615
Rp3616
tp3617
a(VTCTGGGCTTGTCGGCAAATC
p3618
g2
(g6
S'W:\xbar?\xa5\x8b?'
p3619
tp3620
Rp3621
tp3622
a(VCCAAACTGCTGCTTTACGTT
p3623
g2
(g6
S'\xf4\x18\x94R\x98c\xd1?'
p3624
tp3625
Rp3626
tp3627
a(VAATAATGACATTCTGTTTCA
p3628
g2
(g6
S'0\x1es\xd8\\\xb9\x99?'
p3629
tp3630
Rp3631
tp3632
a(VGTTACAGTGGCCAGTGGTAG
p3633
g2
(g6
S'\rh\xd0m\x15\xe6\xd0?'
p3634
tp3635
Rp3636
tp3637
a(VGGCTGATCGGTTTGAGAGAT
p3638
g2
(g6
S'K,m\x94\x9c\xe3\xa5?'
p3639
tp3640
Rp3641
tp3642
a(VACGTTCTCCTTGTCGATTCC
p3643
g2
(g6
S'\x01\xa1\xf07\xac9\xac?'
p3644
tp3645
Rp3646
tp3647
a(VTTTCTTCACACCTGTCGTGA
p3648
g2
(g6
S'\xe8\xeb\xb0\xc4.\xca\xb2?'
p3649
tp3650
Rp3651
tp3652
a(VCCAGACAAGAGCTACATTTA
p3653
g2
(g6
S'\xbc\x11\x13]\xe2\x8b\xb5?'
p3654
tp3655
Rp3656
tp3657
a(VGTCTGGGCTTGTCGGCAAAT
p3658
g2
(g6
S';U\xe4.\xc7M\xc1?'
p3659
tp3660
Rp3661
tp3662
a(VCTTCACTGCAGTCATTCAAA
p3663
g2
(g6
S'ZD\x05h\nF\xce?'
p3664
tp3665
Rp3666
tp3667
a(VTATAGGTATGTTCGTGTGCT
p3668
g2
(g6
S"\xdc'\xc6\x80\x8c\x83\x98?"
p3669
tp3670
Rp3671
tp3672
a(VGTGAGGTCATGGAATTAGAA
p3673
g2
(g6
S'E\xb3\x01\xc4\x9c\xc1\xd4?'
p3674
tp3675
Rp3676
tp3677
a(VGGAAGTTGCAAGTGAGGTCA
p3678
g2
(g6
S'qV\x19\xcd\x97\x05\xb6?'
p3679
tp3680
Rp3681
tp3682
a.