(lp0
(VAAGGGCACAGAGCTGCTGCT
p1
cnumpy.core.multiarray
scalar
p2
(cnumpy
dtype
p3
(S'f8'
p4
I0
I1
tp5
Rp6
(I3
S'<'
p7
NNNI-1
I-1
I0
tp8
bS'%Ya\xdc\x08)\xc8?'
p9
tp10
Rp11
tp12
a(VACGACCCCAGTGTTCACAAG
p13
g2
(g6
S'\x15\xd4\xf2.\xd7u\xdf?'
p14
tp15
Rp16
tp17
a(VATCCCCGCTTGTGAACACTG
p18
g2
(g6
S'\xa3K\xf3\x1f\xb6\xfa\xd9?'
p19
tp20
Rp21
tp22
a(VCTGGCTCAAAATGGACAAGA
p23
g2
(g6
S'\x89\x0e`\x15\x98\xe3\xb3?'
p24
tp25
Rp26
tp27
a(VGTACACAATCAAGGACACAG
p28
g2
(g6
S'j\xbc\xb1\xf60\x81\xe6?'
p29
tp30
Rp31
tp32
a(VTCAGATGACTCCGGAAATGT
p33
g2
(g6
S'>\xd9\x11\xaa{4\xab?'
p34
tp35
Rp36
tp37
a(VGATCCTCACGGTGAACGTCT
p38
g2
(g6
S'H\xb1g\xc5\xf3\xf6\x94?'
p39
tp40
Rp41
tp42
a(VGGAATATCTGAAGATAGCTC
p43
g2
(g6
S'\xba\xd6%}6\x1f\xd7?'
p44
tp45
Rp46
tp47
a(VGGAGGAGGCTGAACGCACGA
p48
g2
(g6
S'u_\x7f&\x83\xd2\xe9?'
p49
tp50
Rp51
tp52
a(VACTGGATCATGATGTTTCAA
p53
g2
(g6
S'\xd2\x87\x91\xd2*\xc2\xc1?'
p54
tp55
Rp56
tp57
a(VTGTTTCGGATTTCATTCCAC
p58
g2
(g6
S'\x9c\x00Ds\xfd\xf8\xd6?'
p59
tp60
Rp61
tp62
a(VGGAGCACAGAAGCCTCAGGA
p63
g2
(g6
S's\x0e\xfczNb\xe9?'
p64
tp65
Rp66
tp67
a(VAGCAGATGAAAGCCCAGGCC
p68
g2
(g6
S'\xceK\xd7\xa9xw\xa6?'
p69
tp70
Rp71
tp72
a(VAAAGATCTACTGCCCTCCTG
p73
g2
(g6
S'\xbe\xeer\xe6^\r\xd0?'
p74
tp75
Rp76
tp77
a(VTGGACTGCAGTACACAATCA
p78
g2
(g6
S'X\x08\x99\xce\xc8L\xb0?'
p79
tp80
Rp81
tp82
a(VCGAGATGGAGTTCAATTGCG
p83
g2
(g6
S'\xf0\xff\xf2\xaf6-\xe9?'
p84
tp85
Rp86
tp87
a(VCCACGGGAAGGAGATCTTGG
p88
g2
(g6
S'Q^J\xaey\r\xde?'
p89
tp90
Rp91
tp92
a(VTACGCCGTCCAGGCCAAGGT
p93
g2
(g6
S';\x95\x04\x8f\x0c\x85\xc8?'
p94
tp95
Rp96
tp97
a(VCACAGCGATTCGCACGGAGG
p98
g2
(g6
S'\xaf\xbcor{&\xaa?'
p99
tp100
Rp101
tp102
a(VGATTTGGTGTGCCGGACTCT
p103
g2
(g6
S'\x82\x8d\xe6&<1\xa1?'
p104
tp105
Rp106
tp107
a(VTGCCTCCTCCTCGGTGATCT
p108
g2
(g6
S'\xca\xb5aG\xf53\x93?'
p109
tp110
Rp111
tp112
a(VGGAACCATGATCTATTTATG
p113
g2
(g6
S'\xf3\x9b\x01\xafH\x8c\xd6?'
p114
tp115
Rp116
tp117
a(VTCCACGGGAAGGAGATCTTG
p118
g2
(g6
S'^\xdf8=\xb0b\xae?'
p119
tp120
Rp121
tp122
a(VAACCCAAGACGTTCACCGTG
p123
g2
(g6
S'g\xf8\xfb7\xc2\xd1\xd8?'
p124
tp125
Rp126
tp127
a(VTGGGGGTCAGTCTGTTCTCA
p128
g2
(g6
S'\x0b\x03W\xf8\x81K\xae?'
p129
tp130
Rp131
tp132
a(VATTTGGTGTGCCGGACTCTG
p133
g2
(g6
S'\x85\x06b\xd9\xcca\xc7?'
p134
tp135
Rp136
tp137
a(VGGTCATAAATGTGAAGCCCC
p138
g2
(g6
S"\xdf\xadJ'\xb4\xda\xb4?"
p139
tp140
Rp141
tp142
a(VAACAATGGCCAACGAAGCAC
p143
g2
(g6
S'\xeb\x855\xa7(\xdd\xd1?'
p144
tp145
Rp146
tp147
a(VAGATTCTCCAGCTATGTATC
p148
g2
(g6
S'\x8b\x9b"\xd9\x86~\xb1?'
p149
tp150
Rp151
tp152
a(VTCCGGCACACCAAATCAAAG
p153
g2
(g6
S'\xf8\xb8\xed}\xd5\x1a\xe2?'
p154
tp155
Rp156
tp157
a(VATCCTCACGGTGAACGTCTT
p158
g2
(g6
S'\x9dgBL\xef\xc6\xc1?'
p159
tp160
Rp161
tp162
a(VCCTGCAGGAAGCACGCGAGG
p163
g2
(g6
S'b\t\xdb\xb7\xa9m\xd9?'
p164
tp165
Rp166
tp167
a(VGAAGCGCCTGATGGAGCAGA
p168
g2
(g6
S'\xb0\x1b`-\x11\x84\xc6?'
p169
tp170
Rp171
tp172
a(VGCCAGGAGCACAGAAGCCTC
p173
g2
(g6
S'\r\xf9\xc5w\xf2\x81\xab?'
p174
tp175
Rp176
tp177
a(VTCTTTGAGCCTACCTTGGCC
p178
g2
(g6
S'\x99irf\xf8\xa5\xcb?'
p179
tp180
Rp181
tp182
a(VTTATCCTGAGAATGCTGAAG
p183
g2
(g6
S'g\x9a\xfc\x8b\xaa\xc3\xd5?'
p184
tp185
Rp186
tp187
a(VTCACCAATGAGGTTGAAGCT
p188
g2
(g6
S'\xd1\xa3`\xc8\x15\xf7\xd6?'
p189
tp190
Rp191
tp192
a(VATGTTTCGGATTTCATTCCA
p193
g2
(g6
S'!{\xf2\xed\xb3\x83\xa5?'
p194
tp195
Rp196
tp197
a(VTTTCTCGGAGCCCCAGAGTC
p198
g2
(g6
S'\x92\xe1\xd6\xaf\x04j\xbb?'
p199
tp200
Rp201
tp202
a(VCATCTCGTACAGTGACAAGG
p203
g2
(g6
S'\xc7\x8d<\xbf\x11%\xe3?'
p204
tp205
Rp206
tp207
a(VCACCGTGAGGATCGTCACCA
p208
g2
(g6
S'\xe4\xae\x19q\xe5\xd2\xc3?'
p209
tp210
Rp211
tp212
a(VTGAGCCTACCTTGGCCTGGA
p213
g2
(g6
S'X\xb3\r]\x02\x10\xca?'
p214
tp215
Rp216
tp217
a(VGTCCATGGTGACGATCCTCA
p218
g2
(g6
S'\\\xb9\xb6n\x85\xab\xe3?'
p219
tp220
Rp221
tp222
a(VAGCCTTCTCCTCCCTGGCCT
p223
g2
(g6
S'[\x15\x0e\xa8*\xb9\xcb?'
p224
tp225
Rp226
tp227
a(VTGCCGGCAGAGTGGAATACA
p228
g2
(g6
S'\xc3\x00\xd3\xb3j!\xbd?'
p229
tp230
Rp231
tp232
a(VCAGATTCTCCAGCTATGTAT
p233
g2
(g6
S'\xd4\xcc\x8d\xfb\xec\x86\xd8?'
p234
tp235
Rp236
tp237
a(VCTTTCCTTGCAGGGCCAAAG
p238
g2
(g6
S'\xb6I\x1f\x9cJ$\xd6?'
p239
tp240
Rp241
tp242
a(VTATCTTTGAAGTCGAAAGAC
p243
g2
(g6
S'\x94\xd68\xcb\xc7\x16\xc4?'
p244
tp245
Rp246
tp247
a(VGCTTGGTACGCAGAGCACCG
p248
g2
(g6
S'%G7K\x94\x90\xeb?'
p249
tp250
Rp251
tp252
a(VCTGCTTGGAGTGGATGCCCT
p253
g2
(g6
S'\x89\xc3\x04\xfb\xd0\x01\xb2?'
p254
tp255
Rp256
tp257
a(VGCCAAGAAGTGAAAGGTGAC
p258
g2
(g6
S'-\xdd>Z\x85U\xc1?'
p259
tp260
Rp261
tp262
a(VGGAAAAGAGCAAGCATCTGC
p263
g2
(g6
S'Y&\x96p\xf5W\xc7?'
p264
tp265
Rp266
tp267
a(VATCAGATGACTCCGGAAATG
p268
g2
(g6
S'\x044t`\xf7\xa5\xb3?'
p269
tp270
Rp271
tp272
a(VCCTGGACGGCGTAAGAAGCC
p273
g2
(g6
S'\xcfjj\xa1\xb0\x00\xaf?'
p274
tp275
Rp276
tp277
a(VCGACCCCAGTGTTCACAAGC
p278
g2
(g6
S'\x98RZ)K\xc7\xb5?'
p279
tp280
Rp281
tp282
a(VCTCTGGGGCTCCGAGAAACC
p283
g2
(g6
S']\xfex\xec\xbd1\xb3?'
p284
tp285
Rp286
tp287
a(VGCAGGAAATGCAGCGCATCA
p288
g2
(g6
S'\xba\x80\x8d\xa7\xc2\xf8\xb0?'
p289
tp290
Rp291
tp292
a(VATGATCTATTTATGAGGAGA
p293
g2
(g6
S'}\xea\x9a\xc1\xc6\x92\x9b?'
p294
tp295
Rp296
tp297
a(VCACAGAGCTGCTGCTTGGAG
p298
g2
(g6
S'u\xe7\xcb\x03?G\xab?'
p299
tp300
Rp301
tp302
a(VTTCTCCTCATAAATAGATCA
p303
g2
(g6
S'\x8a\xdc\xe0\xff\x1f\x8b\xb5?'
p304
tp305
Rp306
tp307
a(VCCCCCAAGATCTCCTTCCCG
p308
g2
(g6
S'iX\xe2\xba\x8fG\xd5?'
p309
tp310
Rp311
tp312
a(VTGAATGGGCCTCACCTGGCT
p313
g2
(g6
S'\x93v\xad\x01mR\xb9?'
p314
tp315
Rp316
tp317
a(VGACCCCAGTGTTCACAAGCG
p318
g2
(g6
S'\xe8\xb8xJ\x97\x96\xdb?'
p319
tp320
Rp321
tp322
a(VGATGACTCCGGAAATGTGGG
p323
g2
(g6
S'\xaa+\x9f\xe5y\x90\xe6?'
p324
tp325
Rp326
tp327
a(VCTCGCAATTGAACTCCATCT
p328
g2
(g6
S'#\x9a,-\xa4u\xad?'
p329
tp330
Rp331
tp332
a(VGAACTCCATCTCGGCGTCCA
p333
g2
(g6
S'\x96\xf5Q\xfc\xce\xe5\xaa?'
p334
tp335
Rp336
tp337
a(VCCTGATGGAGCAGAAGGTGC
p338
g2
(g6
S'a\xce\xcc\xc9\x14>\xc4?'
p339
tp340
Rp341
tp342
a(VAGTTCACACCGTACATCTCC
p343
g2
(g6
S'G\x9f\xdd\xc1R\xd4\xae?'
p344
tp345
Rp346
tp347
a(VTCGGATTTCATTCCACGGGA
p348
g2
(g6
S'y\xb8f\xf0\xcc\x0b\xbb?'
p349
tp350
Rp351
tp352
a(VTGAACGCACGAGGGATGAGT
p353
g2
(g6
S'\xf2\x90\xc9\xacUp\xc0?'
p354
tp355
Rp356
tp357
a(VCGTCACCATGGACGCCGAGA
p358
g2
(g6
S'\xc3i\xfb6H\xb1\xa8?'
p359
tp360
Rp361
tp362
a(VAAATTTGGCCAAGAAGTGAA
p363
g2
(g6
S'"XCL\x03+\xc9?'
p364
tp365
Rp366
tp367
a(VGTCATAAATGTGAAGCCCCA
p368
g2
(g6
S'\xc1I\xb9LdN\xe7?'
p369
tp370
Rp371
tp372
a(VCCCAGGCTCACCGGGTACGT
p373
g2
(g6
S'\xd1\xd6G\xfb\xad\x8a\xc8?'
p374
tp375
Rp376
tp377
a(VCCCCAGGCTCACCGGGTACG
p378
g2
(g6
S's\xa5$?p\x02\x9e?'
p379
tp380
Rp381
tp382
a(VGGACCTGCAGGAAGCACGCG
p383
g2
(g6
S'}\xa1\xf9\xfc-\n\xe2?'
p384
tp385
Rp386
tp387
a(VACCTCTTTGATTTGGTGTGC
p388
g2
(g6
S'\xd9\xe3%\x02LN\xa7?'
p389
tp390
Rp391
tp392
a(VTTCTTACGCCGTCCAGGCCA
p393
g2
(g6
S'\xeeN\x9ffFT\xca?'
p394
tp395
Rp396
tp397
a(VTGAAAAGGCCCAGATCACCG
p398
g2
(g6
S'&\xda\xfa\x8e\x86h\xeb?'
p399
tp400
Rp401
tp402
a(VAATCCCCGCTTGTGAACACT
p403
g2
(g6
S'A\xc6 \xd3\x81|\xb3?'
p404
tp405
Rp406
tp407
a(VCATTTCCTGCTCAGCCTCTG
p408
g2
(g6
S'D\x80n\x90\x92\x9c\xce?'
p409
tp410
Rp411
tp412
a(VAAACATCTCGTACAGTGACA
p413
g2
(g6
S'>\xbe\xe0z\xe4\xb4\xc5?'
p414
tp415
Rp416
tp417
a(VGATGAAAGCCCAGGCCAGGG
p418
g2
(g6
S'\xf0\xea6W\xb67\xd5?'
p419
tp420
Rp421
tp422
a(VTGTGAACTACTTTGCAATCC
p423
g2
(g6
S'\xb4\xb5D\x827\x11\x9c?'
p424
tp425
Rp426
tp427
a(VTGTCACTGTACGAGATGTTT
p428
g2
(g6
S'\xf7\x91\xee\xf6?\xd1\xcb?'
p429
tp430
Rp431
tp432
a(VTCATCTGCTTCTCTCGAGCG
p433
g2
(g6
S'\n\x9b4\x1fm\xd2\xe2?'
p434
tp435
Rp436
tp437
a(VGTTTGTTATTGCAGATGAAG
p438
g2
(g6
S'T\xe9\x8c\xc7\xc3\xfd\xc2?'
p439
tp440
Rp441
tp442
a(VGAGGCAACGGTGCTGGAATT
p443
g2
(g6
S'\xfb\xf2\xcf\xfa\xfeG\xa9?'
p444
tp445
Rp446
tp447
a(VAAAGGCCCAGATCACCGAGG
p448
g2
(g6
S'\x1ajV\xae\x9ep\xcf?'
p449
tp450
Rp451
tp452
a(VAGAAATCACCAGTGCTTCGT
p453
g2
(g6
S'|J\xe7&\xde\xbf\xa4?'
p454
tp455
Rp456
tp457
a(VGGCCACAGCGATTCGCACGG
p458
g2
(g6
S'\xafk2\xe5nP\xdc?'
p459
tp460
Rp461
tp462
a(VAAGACAGGCTGTCACCAATG
p463
g2
(g6
S'\xf7\xf7\r\xa4ox\xd5?'
p464
tp465
Rp466
tp467
a(VTGCTGAAGAGGAGCTGGTTC
p468
g2
(g6
S'\xe2\x13\x8f\xe4"Y\x9a?'
p469
tp470
Rp471
tp472
a(VTTGAAGCTTGGTATGTCAGG
p473
g2
(g6
S'1\xb5\xd0\x8eN/\xd5?'
p474
tp475
Rp476
tp477
a(VTTCCACGGGAAGGAGATCTT
p478
g2
(g6
S'\x08\x08l"\xc1\xc1\x9b?'
p479
tp480
Rp481
tp482
a(VGCTGCTTGGAGTGGATGCCC
p483
g2
(g6
S'e\xceG\xda\x0c\xbe\x96?'
p484
tp485
Rp486
tp487
a(VGCAGATGAAAGCCCAGGCCA
p488
g2
(g6
S'\x8eq\xac(\xb1\x9d\xe5?'
p489
tp490
Rp491
tp492
a(VGAGAGAGCTGAAGCTCATGC
p493
g2
(g6
S'\x01\xe9L\xee8\x04\xe2?'
p494
tp495
Rp496
tp497
a(VCCTGGCTTCTTACGCCGTCC
p498
g2
(g6
S'f\x9bo\xd2\xa1\xc4\xaa?'
p499
tp500
Rp501
tp502
a(VTTATTGCAGATGAAGTGGAA
p503
g2
(g6
S'\t,]\x1a\xef)\xc1?'
p504
tp505
Rp506
tp507
a(VGGGAGGAGAGAATTACTGCT
p508
g2
(g6
S'\x9e\x94:\xe2?\xe6\xe4?'
p509
tp510
Rp511
tp512
a(VTGCTTGGAGTGGATGCCCTG
p513
g2
(g6
S'\x12\xb5]6t\xb2\xd4?'
p514
tp515
Rp516
tp517
a(VTGGGCTTGGTGGCAATCTCC
p518
g2
(g6
S'&\x9c\xd1\xe7\x877\x89?'
p519
tp520
Rp521
tp522
a(VAGTTCAGCAGATGAAAGCCC
p523
g2
(g6
S'!\x9av\xba\xber\xe1?'
p524
tp525
Rp526
tp527
a(VCATGGTTCCCGATACATAGC
p528
g2
(g6
S'D1\x95X\xfb\xf6\xc1?'
p529
tp530
Rp531
tp532
a(VAATCTCCAGGAGCTTCTGCT
p533
g2
(g6
S'\xf1\xe2\xde\xab?\xaa\xd4?'
p534
tp535
Rp536
tp537
a(VTGACATGAAGCGGCTTTCCA
p538
g2
(g6
S'\x7f\xf2\x17}|\xb7\xc0?'
p539
tp540
Rp541
tp542
a(VATTCCACGGGAAGGAGATCT
p543
g2
(g6
S'\x1a\xe7\x83&\x08\xa5w?'
p544
tp545
Rp546
tp547
a(VTCGTACAGTGACAAGGAGGT
p548
g2
(g6
S'\xe6\x9b\x14\xb6\x048\xd4?'
p549
tp550
Rp551
tp552
a(VCCGCCTCGCGTGCTTCCTGC
p553
g2
(g6
S"\xb7''^\x8e,\xcd?"
p554
tp555
Rp556
tp557
a(VAAATCCCCGCTTGTGAACAC
p558
g2
(g6
S'\x8a\xff\xc4\x93\xa0\xe9\xb5?'
p559
tp560
Rp561
tp562
a(VTGAGAATGCTGAAGAGGAGC
p563
g2
(g6
S'w\x1bi\xe3g\xe7\xc9?'
p564
tp565
Rp566
tp567
a(VGGGAGGAGGCTGAACGCACG
p568
g2
(g6
S'\x1c\x9c{Tk\xfd\xb7?'
p569
tp570
Rp571
tp572
a(VAGATGGCTGAGGAGTCAGAG
p573
g2
(g6
S'1p\xb5X\xce!\xe0?'
p574
tp575
Rp576
tp577
a(VGTACTGCAGTCCAAAGAACC
p578
g2
(g6
S't\x0c\xf8\x97\x05\xec\xe0?'
p579
tp580
Rp581
tp582
a(VTCTGGCCCAGAAGGCCGCAG
p583
g2
(g6
S'@\xc4\xadR\xdf\xd1\xe6?'
p584
tp585
Rp586
tp587
a(VCTTTCTAGCCTTCTCCTCCC
p588
g2
(g6
S'\xfa)\xe4\x03h\x7f\xbc?'
p589
tp590
Rp591
tp592
a(VTGAGAGAGCTGAAGCTCATG
p593
g2
(g6
S"\x11_\x95'\xea\xae\xd3?"
p594
tp595
Rp596
tp597
a(VGGAGGAGAAGGCTAGAAAGC
p598
g2
(g6
S'\x1eI\x81\xb9\xa1\xdf\xd0?'
p599
tp600
Rp601
tp602
a(VTTGGATCCACAGAATAAAAA
p603
g2
(g6
S'\x86\xfe\xe3f\xb3\xc8\xdb?'
p604
tp605
Rp606
tp607
a(VTGAGCTTCAGCTCTCTCAAG
p608
g2
(g6
S'\x11\x11RE^\xc7\xd9?'
p609
tp610
Rp611
tp612
a(VTCGAGAGAAGCAGATGAGGG
p613
g2
(g6
S'\x85\xfa:\xc9\x86\x90\xc7?'
p614
tp615
Rp616
tp617
a(VTTGGGGGTCAGTCTGTTCTC
p618
g2
(g6
S'\xd2J\x03:\xf1\xa7\xa7?'
p619
tp620
Rp621
tp622
a(VGCAGATGAAGTGGAAAGGGA
p623
g2
(g6
S'2l9<)\x98\xd8?'
p624
tp625
Rp626
tp627
a(VAAAGCTTCGTGTTAATAAGC
p628
g2
(g6
S'nq\x9c\xfa\x91\xb9\xbb?'
p629
tp630
Rp631
tp632
a(VTGCCACCAAGCCCACGTACC
p633
g2
(g6
S'\xa8L\x18j\xa0;\x9f?'
p634
tp635
Rp636
tp637
a(VCAATCAAGGACACAGTGGCC
p638
g2
(g6
S'W[\x19\xa3ap\x96?'
p639
tp640
Rp641
tp642
a(VCGCTCGAGAGAAGCAGATGA
p643
g2
(g6
S'\xae\xef\xb9\xcf\xce\x02\xde?'
p644
tp645
Rp646
tp647
a(VGCACGAGGGATGAGTTGGAG
p648
g2
(g6
S'\x11a@R\xebM\xb1?'
p649
tp650
Rp651
tp652
a(VTGAGGAGACAGCTGACCTGT
p653
g2
(g6
S'\x89\xd7Z7\\\xe6\xb0?'
p654
tp655
Rp656
tp657
a(VCTGCTGAACTTCCAAAGAAT
p658
g2
(g6
S'\xb1t\x10\x04`\xed\xc9?'
p659
tp660
Rp661
tp662
a(VCTCCTCCGTGCGAATCGCTG
p663
g2
(g6
S'\x08\xf1\x83\x1e*\x00\xc2?'
p664
tp665
Rp666
tp667
a(VGATGAAAGAAGAAGCAACAA
p668
g2
(g6
S'\xdf\x7f\xe7\xbb\xb4Q\xd6?'
p669
tp670
Rp671
tp672
a(VAGGAGCACAGAAGCCTCAGG
p673
g2
(g6
S'\x98\xc8\xf8<\xee\xf7\xd0?'
p674
tp675
Rp676
tp677
a(VTGGGGTCGTAGTCACCATAC
p678
g2
(g6
S'\x9cf\x98\x12\xfde\x9d?'
p679
tp680
Rp681
tp682
a(VAGGTTGAAGCTTGGTATGTC
p683
g2
(g6
S'\x9eq\xc8\xa3\xa7\n\x94?'
p684
tp685
Rp686
tp687
a(VGTGTGAACTACTTTGCAATC
p688
g2
(g6
S'\x97\xe2\x1c\x08\xd8-\xc6?'
p689
tp690
Rp691
tp692
a(VCCAGTTTACTATTAAACCAC
p693
g2
(g6
S'\x06p\xd1\xce\x0b\xe5\xc1?'
p694
tp695
Rp696
tp697
a(VAGAGGCAGATCAGCTGAAGC
p698
g2
(g6
S'\x9a\xdf$^\x82\xb9\xc2?'
p699
tp700
Rp701
tp702
a(VTATTGCAGATGAAGTGGAAA
p703
g2
(g6
S"\x9e\x9c'\xf2\xb2\x13\xde?"
p704
tp705
Rp706
tp707
a(VAGCCCAGGCCAGGGAGGAGA
p708
g2
(g6
S'\xd0\xe3\x8dR]N\x9c?'
p709
tp710
Rp711
tp712
a(VGGAGGAGGAGAAGCGCCTGA
p713
g2
(g6
S'\xc2\xdd\xcb\x10\xd6U\xe2?'
p714
tp715
Rp716
tp717
a(VGCTGGCACTGAAGATGGCTG
p718
g2
(g6
S'o\xd4\xdfR\x9bf\xe6?'
p719
tp720
Rp721
tp722
a(VTCAGCTGAAGCAGGACCTGC
p723
g2
(g6
S'\xa2\x1cX\xd0\xac\x93\xc8?'
p724
tp725
Rp726
tp727
a(VGAAGCTCATGCGGGAAGCGA
p728
g2
(g6
S'|\xfd\xb8\x19Hy\xb9?'
p729
tp730
Rp731
tp732
a(VAAATCTGTATCAGATGACTC
p733
g2
(g6
S'\x13\x8f\xfb\xbe\xce9\xcb?'
p734
tp735
Rp736
tp737
a(VAAGAGCCAAGCAGAAGCTCC
p738
g2
(g6
S'J\x06v\xb8\xfa\n\x92?'
p739
tp740
Rp741
tp742
a(VAGCTCCTCTTCAGCATTCTC
p743
g2
(g6
S'\xa8\xdc\x14\xf4\xb6\xd0\xbb?'
p744
tp745
Rp746
tp747
a(VGTCCAAAGAACCAGGTTTCT
p748
g2
(g6
S'+\x92\xf3!Ob\xaa?'
p749
tp750
Rp751
tp752
a(VATGTCAGGAGGCAACGGTGC
p753
g2
(g6
S'\t\x0c\x99\xf8\x91\xc5\xac?'
p754
tp755
Rp756
tp757
a(VCTGTCTCCTCAGACCGCATC
p758
g2
(g6
S'\xa0?D\xd5u\xc9\x8c?'
p759
tp760
Rp761
tp762
a(VCGGTGCTGGAATTGGGTTCA
p763
g2
(g6
S'\x89\x80,\x0c\xdda=?'
p764
tp765
Rp766
tp767
a(VGGCCCAGATCACCGAGGAGG
p768
g2
(g6
S'N\xfa\xea\xc6\x95\xdc\xb1?'
p769
tp770
Rp771
tp772
a(VGGTGCTGGAATTGGGTTCAT
p773
g2
(g6
S'8!!\x88\xfb\x81\xd3?'
p774
tp775
Rp776
tp777
a(VCAAGGCCACAGCGATTCGCA
p778
g2
(g6
S'U|\xde\xb5\xcd\xd2\xcb?'
p779
tp780
Rp781
tp782
a(VTGATTTGGTGTGCCGGACTC
p783
g2
(g6
S'w\x1d\xac*\xf4\xf4\xa2?'
p784
tp785
Rp786
tp787
a(VTGAACTCAAGACAGAAATCG
p788
g2
(g6
S'\x98\xd3\xfbL\x11\xae\xd1?'
p789
tp790
Rp791
tp792
a(VCGAGGGATGAGTTGGAGAGG
p793
g2
(g6
S'\xd1\xfaz\x0f\xae\xf8\xc2?'
p794
tp795
Rp796
tp797
a(VCGAGGTGCTGGCACTGAAGA
p798
g2
(g6
S'\x86\xd2`\x18\x85\xc4\xd2?'
p799
tp800
Rp801
tp802
a(VCGAGGAGGAGGCAAAACTTC
p803
g2
(g6
S'\x84\xff\x1c\x02!;\xab?'
p804
tp805
Rp806
tp807
a(VTGCCCTCCAGATGCGGTCTG
p808
g2
(g6
S'D\rg\xfd\xb4\xf1\xb3?'
p809
tp810
Rp811
tp812
a(VCTCAAAATGGACAAGAAGGT
p813
g2
(g6
S'\xd6\xc7C\xdf\xdd\xca\xbf?'
p814
tp815
Rp816
tp817
a(VCTTGGTATGTCAGGAGGCAA
p818
g2
(g6
S':\xddLa\xb2,\xe4?'
p819
tp820
Rp821
tp822
a(VATACCAAGCTTCAACCTCAT
p823
g2
(g6
S'\xa2\xd7\x88(r=\xd2?'
p824
tp825
Rp826
tp827
a(VGGAGGCAACGGTGCTGGAAT
p828
g2
(g6
S'\x10\x9a\xc2"=G\xa8?'
p829
tp830
Rp831
tp832
a(VTTCACCCCTCGCAGATGGAG
p833
g2
(g6
S'K\xbb;\xac\x1c,\xd6?'
p834
tp835
Rp836
tp837
a(VCCAGCACCTTCTGCTCCATC
p838
g2
(g6
S'AH7>j\xfe\xc7?'
p839
tp840
Rp841
tp842
a(VCATCTTCAGTGCCAGCACCT
p843
g2
(g6
S'o\xb8H\x07\x0f\xa6\xde?'
p844
tp845
Rp846
tp847
a(VGCTCAGGACCTGGAGATGTA
p848
g2
(g6
S's\xf7\x8f>\x135\xe2?'
p849
tp850
Rp851
tp852
a(VGCAGAAGGTGCTGGAAGCCG
p853
g2
(g6
S'(\x90\xfd\x1fl\x10\xe5?'
p854
tp855
Rp856
tp857
a(VTCGCTCGAGAGAAGCAGATG
p858
g2
(g6
S'\xb7\xfe\xac\xe5\r\xb1\xab?'
p859
tp860
Rp861
tp862
a(VATTGGATCCACAGAATAAAA
p863
g2
(g6
S'\xab\xb7\x876`\x8d\xc6?'
p864
tp865
Rp866
tp867
a(VGGTGCTGGAAGCCGAGGTGC
p868
g2
(g6
S'\xa0T0g\x0c,\xab?'
p869
tp870
Rp871
tp872
a(VAAGAGGAATTGCTTCCAAAA
p873
g2
(g6
S'^\xd8\xbb\xbb\xa5\x07\xad?'
p874
tp875
Rp876
tp877
a(VAGAGGAATTGCTTCCAAAAA
p878
g2
(g6
S"\xeb\x8a\xbe'{\xf0\xcc?"
p879
tp880
Rp881
tp882
a(VGGAAGCGATGGCCCCGGCCA
p883
g2
(g6
S'\xc5q\x1d9\x8b\xc4\xbf?'
p884
tp885
Rp886
tp887
a(VCTTATTAACACGAAGCTTTG
p888
g2
(g6
S'G\x07\xbc}j}\xb7?'
p889
tp890
Rp891
tp892
a(VCACAGTGGCCTGGCTCAAAA
p893
g2
(g6
S'\x99\x87:\x16U\xeb\xc6?'
p894
tp895
Rp896
tp897
a(VCCACAGGGATGAAGCTGAAA
p898
g2
(g6
S'\xe8\x06\xfeH\xf5\x03\xc6?'
p899
tp900
Rp901
tp902
a(VGGCAAAACTTCTGGCCCAGA
p903
g2
(g6
S'\xef^\xc5\x14r\xc6\xc2?'
p904
tp905
Rp906
tp907
a(VATTCTCTCCTCCCACATTTC
p908
g2
(g6
S'OU\x8d\x9dq\x93\xa9?'
p909
tp910
Rp911
tp912
a(VCAGAGCACCGAGGCCGAGCC
p913
g2
(g6
S'\xb9\x94\xe1\xe2"#\xbe?'
p914
tp915
Rp916
tp917
a(VCCAGTGGTTTAATAGTAAAC
p918
g2
(g6
S'\x14\xdel\x13\xf1\x8d\xc4?'
p919
tp920
Rp921
tp922
a(VAGGGAAGGACCTCTTTGATT
p923
g2
(g6
S'\x1ca0\x03\xbep\x97?'
p924
tp925
Rp926
tp927
a(VCATGCGGGAAGCGATGGCCC
p928
g2
(g6
S'\xb8\xb5nK0Q\xd0?'
p929
tp930
Rp931
tp932
a(VTGAGCCCCGCGCCATGGCCG
p933
g2
(g6
S'v\xb8\xfa\n\x02&\xe2?'
p934
tp935
Rp936
tp937
a(VCTGAGCCCCGCGCCATGGCC
p938
g2
(g6
S'%k\x81\xfb\t\x80\x84?'
p939
tp940
Rp941
tp942
a(VTAGCCTTCTCCTCCCTGGCC
p943
g2
(g6
S'\x13\xe7\x8f\x06C_\x86?'
p944
tp945
Rp946
tp947
a(VGAAAGAGAGGGAGACAGCTC
p948
g2
(g6
S'\xd6f\\k\x017\xaa?'
p949
tp950
Rp951
tp952
a(VCTCTTCAAAGAAGGCCACTC
p953
g2
(g6
S'\x85\xb4\x17\xe8\x12\xc2\xa9?'
p954
tp955
Rp956
tp957
a(VCTCTGCAATTCTGCAGGTAC
p958
g2
(g6
S'\x04,\xb2\xd0\xe0L\xa2?'
p959
tp960
Rp961
tp962
a(VAAAGAAGGCCACTCGGGACT
p963
g2
(g6
S'\xce\xf5\xa6\xb7y\xc2\x98?'
p964
tp965
Rp966
tp967
a(VTCCTGAGGCTTCTGTGCTCC
p968
g2
(g6
S'\xee\xd7\x07\xd3\xdc|v?'
p969
tp970
Rp971
tp972
a(VGGCCTTGAAACTGAAAGAGA
p973
g2
(g6
S'\xfd`_9\xe2S\xd6?'
p974
tp975
Rp976
tp977
a(VCTGCTAGAGCTCTTCAAAGA
p978
g2
(g6
S'i/\xa0\xecm\x80\xb1?'
p979
tp980
Rp981
tp982
a(VTCAAAGATACTGACATGAAG
p983
g2
(g6
S'\xd5G\xce,\x83\xe6\xe6?'
p984
tp985
Rp986
tp987
a(VGCAGAGCGCCAAGTCCCGAG
p988
g2
(g6
S'-\xd0\xa2\x02\x1di\xe7?'
p989
tp990
Rp991
tp992
a(VCCTGAGCCCCGCGCCATGGC
p993
g2
(g6
S'~=\xe03r\x13\xa8?'
p994
tp995
Rp996
tp997
a(VACAACATTTATTCTTCTTAC
p998
g2
(g6
S'\x94:\xf9\xdb;v\xb0?'
p999
tp1000
Rp1001
tp1002
a(VTCGGGACTTGGCGCTCTGCA
p1003
g2
(g6
S'&\xd4d\xaa\x86\x1b\xb2?'
p1004
tp1005
Rp1006
tp1007
a(VAATGAGAACTCCGACAGGGG
p1008
g2
(g6
S'\xe4\x1bSud\xec\xc8?'
p1009
tp1010
Rp1011
tp1012
a(VTTGCCTCCTCCTCGGTGATC
p1013
g2
(g6
S'Q\x89\xa4C\xcb\xade?'
p1014
tp1015
Rp1016
tp1017
a(VCTTGCTGCTGCCACCCCTGT
p1018
g2
(g6
S'\xa3g\x063\x9eo\xbd?'
p1019
tp1020
Rp1021
tp1022
a(VAGGCCTTGAAACTGAAAGAG
p1023
g2
(g6
S'N\xcc\x91\xcd\t\xa5\xcb?'
p1024
tp1025
Rp1026
tp1027
a(VCTCCGAGAAACCTGGTTCTT
p1028
g2
(g6
S'z\xde\xf5\xe8\xf9\x12\x83?'
p1029
tp1030
Rp1031
tp1032
a(VGCACAATGAGAACTCCGACA
p1033
g2
(g6
S'\xa2\x10\x0b\xf9\xc3\xe6\xeb?'
p1034
tp1035
Rp1036
tp1037
a(VGCTCTTCAAAGAAGGCCACT
p1038
g2
(g6
S'\xea\x9e\xaf8 \xe2\xe1?'
p1039
tp1040
Rp1041
tp1042
a(VCTCCCTCTCTTTCAGTTTCA
p1043
g2
(g6
S'Y\xf4\x14ZR\xc5\xa9?'
p1044
tp1045
Rp1046
tp1047
a(VCAAGCACAATACCATTAAAA
p1048
g2
(g6
S'\xaa]\xae\xa64\xe0\xb1?'
p1049
tp1050
Rp1051
tp1052
a(VAGCTGACCTGTTGGCTGAAA
p1053
g2
(g6
S'\xf8?\x04x\xb2k\x8c?'
p1054
tp1055
Rp1056
tp1057
a(VACCAGTCACCTTTCACTTCT
p1058
g2
(g6
S'\xc3A\x12[\x19\x0b\x8d?'
p1059
tp1060
Rp1061
tp1062
a(VGGCCTCACCTGGCTCGGCCT
p1063
g2
(g6
S'\xa6\xba\xa6^\xbc\x01\xcc?'
p1064
tp1065
Rp1066
tp1067
a(VGAGAAGGAAAGCCGATTCTT
p1068
g2
(g6
S'0J\x84\xd1\xa2\xfa\xad?'
p1069
tp1070
Rp1071
tp1072
a(VGAAGGCCGCAGAGGCTGAGC
p1073
g2
(g6
S'[\xe6j\xe7\xd8\x9a\x9f?'
p1074
tp1075
Rp1076
tp1077
a(VGCTCAGCCTCTGCGGCCTTC
p1078
g2
(g6
S'\x92u\r:\xee\x82\xae?'
p1079
tp1080
Rp1081
tp1082
a(VCTTCAGCTGATCTGCCTCTT
p1083
g2
(g6
S'\xfe\xe5\x0c%\x90\x9b\x9a?'
p1084
tp1085
Rp1086
tp1087
a(VCTTCTTTGAAGAGCTCTAGC
p1088
g2
(g6
S'\xd3S\x81\xe6\xb5\xaa\xd1?'
p1089
tp1090
Rp1091
tp1092
a(VCACAATGAGAACTCCGACAG
p1093
g2
(g6
S'\x9bG\xd5\xe1\xae\x7f\xcc?'
p1094
tp1095
Rp1096
tp1097
a(VAGCATTCTCAGGATAAAATT
p1098
g2
(g6
S'\xf9\xd1W-<q\xbb?'
p1099
tp1100
Rp1101
tp1102
a(VTGCACAATGAGAACTCCGAC
p1103
g2
(g6
S'2\x0cZs@\x05\xd8?'
p1104
tp1105
Rp1106
tp1107
a(VCTCAGCCTCTGCGGCCTTCT
p1108
g2
(g6
S'\x08&\xfa&\x94X\x86?'
p1109
tp1110
Rp1111
tp1112
a(VGCTCACCGGGTACGTGGGCT
p1113
g2
(g6
S'\xf2\xc9qDJ\xf5\x8d?'
p1114
tp1115
Rp1116
tp1117
a.