(lp0
(VCTGGACGCCATCGAGCAGTT
p1
cnumpy.core.multiarray
scalar
p2
(cnumpy
dtype
p3
(S'f8'
p4
I0
I1
tp5
Rp6
(I3
S'<'
p7
NNNI-1
I-1
I0
tp8
bS'\x10\xc4|\xf0\x0f\xd8\xc1?'
p9
tp10
Rp11
tp12
a(VGGAAGCTGAAAGAGAGACAG
p13
g2
(g6
S'\x1b\x91_\xa7\xa7\xbb\xe8?'
p14
tp15
Rp16
tp17
a(VGCATAAACGGGAGAAGAGGA
p18
g2
(g6
S'w\x86\xae\xe6.\x99\xdf?'
p19
tp20
Rp21
tp22
a(VGCAGTTCGGCTTCGGAAACT
p23
g2
(g6
S'}\xd4\x99Z:\x8f\xbd?'
p24
tp25
Rp26
tp27
a(VCTTCACGCTCTGGGGGCCCG
p28
g2
(g6
S'\x9c\x92\x0c6\xfeO\xcd?'
p29
tp30
Rp31
tp32
a(VGTGGCTGAGCAGCAGCAGCT
p33
g2
(g6
S'\x18&\x07w];\xc5?'
p34
tp35
Rp36
tp37
a(VACAGACCACACCTGTCCCAG
p38
g2
(g6
S'\xd20B\x99\xc2Z\xd2?'
p39
tp40
Rp41
tp42
a(VGACAGGTGTGGTCTGTCACG
p43
g2
(g6
S'\xf2_\xe3\xa4wt\xeb?'
p44
tp45
Rp46
tp47
a(VGCAGTTCTCGGATCTTGGCC
p48
g2
(g6
S'\x97X\x07\xaa\xc0\xd5\xe0?'
p49
tp50
Rp51
tp52
a(VGCAGCGGGCTCACCTCGGCC
p53
g2
(g6
S'\xdbW<\xfa\x01\x1d\xd6?'
p54
tp55
Rp56
tp57
a(VGGATTCCTTGCCGCTTCTGG
p58
g2
(g6
S'\xc87\xb3\x14\xcb\x18\xc2?'
p59
tp60
Rp61
tp62
a(VGGCAGCGGGGTGGTGAGGCT
p63
g2
(g6
S'V\xd7\x9c\xe1\xd8C\x91?'
p64
tp65
Rp66
tp67
a(VCATGACATGAACTGGTACAG
p68
g2
(g6
S'x\xbb\x93\x8c\xf2\xc5\xdf?'
p69
tp70
Rp71
tp72
a(VTCAGCCACAGAGATGTCCAG
p73
g2
(g6
S'\x1a*\xcej\xe4\xc7\xe8?'
p74
tp75
Rp76
tp77
a(VCCGCTACCACGGCTACCAGC
p78
g2
(g6
S'\xe6\xc1\xc4\xbc\x1a\xa2\xd3?'
p79
tp80
Rp81
tp82
a(VTGCTTCCCGGACTCCCCAAG
p83
g2
(g6
S'\x05;\x7f\x8c\x19\x0e\xe0?'
p84
tp85
Rp86
tp87
a(VGCCACAGAGATGTCCAGCGG
p88
g2
(g6
S'\x13g\xdd\xf0\xcfM\xdf?'
p89
tp90
Rp91
tp92
a(VAGATCCAGCCGCTTTCTGTG
p93
g2
(g6
S'\x1f\xde\xf9\x99\x08(\xdd?'
p94
tp95
Rp96
tp97
a(VAGCCACAGAGATGTCCAGCG
p98
g2
(g6
S'\xe1\xde\x83w\xbc\x80\xd9?'
p99
tp100
Rp101
tp102
a(VGAAGATATGGCTGCCCACGT
p103
g2
(g6
S'\x15\xdf\xa9\xb0\xb44\xb1?'
p104
tp105
Rp106
tp107
a(VCCCACGTGGACATGTACGTG
p108
g2
(g6
S'\xfe\xec\xafm=\x82\xaf?'
p109
tp110
Rp111
tp112
a(VTCCAAACGGGGAAAGGAGGA
p113
g2
(g6
S'yg\xc47\xda\x12\xb2?'
p114
tp115
Rp116
tp117
a(VGAGCCCGCTGATGAGCGTCT
p118
g2
(g6
S'\xdeJ#$\xda\x07\xd0?'
p119
tp120
Rp121
tp122
a(VCGGGGGAAGATGGCGGAGCT
p123
g2
(g6
S'\x8eGU\x85\x99\xc5r?'
p124
tp125
Rp126
tp127
a(VGGGCGGCTGGACCAGTCGCG
p128
g2
(g6
S'H\xc1o\x1d\xc5\x04\xe8?'
p129
tp130
Rp131
tp132
a(VACGGCGGGCGCTTCACGCTC
p133
g2
(g6
S'\xdd\xf2\xd0\xf87\xc8\x81?'
p134
tp135
Rp136
tp137
a(VCGTCCACCAGCTGGTAGCCG
p138
g2
(g6
S'\x1c(\x8d$\x83\x14\xdb?'
p139
tp140
Rp141
tp142
a(VGAAGCGCAAGATCACCAAGG
p143
g2
(g6
S'=}\xd9}\x94\xff\xd7?'
p144
tp145
Rp146
tp147
a(VAGATGTCCAGCGGGGGCAGC
p148
g2
(g6
S'd\x83\xa8\xa2H\\\x91?'
p149
tp150
Rp151
tp152
a(VTGTACATCCACGGGAACCTG
p153
g2
(g6
S'+\n\x98\x19f\xa3\xd8?'
p154
tp155
Rp156
tp157
a(VTAATGCTCCATCACCTCTTG
p158
g2
(g6
S'\xfa\xf8\xc8\t\xba\x8d\xb7?'
p159
tp160
Rp161
tp162
a(VCATCCACGGGAACCTGGGGA
p163
g2
(g6
S'\xe3,E"\xcfV\x97?'
p164
tp165
Rp166
tp167
a(VCATCGCCCGTGACTACAATC
p168
g2
(g6
S'\x9c^\xdb;\xa05\xc2?'
p169
tp170
Rp171
tp172
a(VACGTGAGCATGTACATCCAC
p173
g2
(g6
S'\xaf\x8b^\xea@\xc6\xd2?'
p174
tp175
Rp176
tp177
a(VGATGTCCAGCGGGGGCAGCG
p178
g2
(g6
S'\xf0\xcbk\xb5\x1f\x9a\xdc?'
p179
tp180
Rp181
tp182
a(VGTCCAGCCGCCCTCGGCCTC
p183
g2
(g6
S'\xd4\x95o\x80\x10\xfe\x8a?'
p184
tp185
Rp186
tp187
a(VGGTGCCAGCCTTCCTGGGGA
p188
g2
(g6
S'\xeanZ\xcd\x93\x9b\xbe?'
p189
tp190
Rp191
tp192
a(VGCGGCGGTGGTGGCCGATCT
p193
g2
(g6
S'\x12\xda\xaf\x91\xdd2{?'
p194
tp195
Rp196
tp197
a(VGCTACCAGCTGGTGGACGGC
p198
g2
(g6
S'l\x9c\xfe\x00,\xf1\xcb?'
p199
tp200
Rp201
tp202
a(VAGCTGAAAGAGAGACAGCGG
p203
g2
(g6
S'7\xa3\xd7\x80\xb7\xb9\xe1?'
p204
tp205
Rp206
tp207
a(VCCAAGATCCGAGAACTGCAG
p208
g2
(g6
S'\x01\x8b\x99\xd0f\x9d\xea?'
p209
tp210
Rp211
tp212
a(VCGGGGCACAGCTCGATGTCC
p213
g2
(g6
S'\n\x86x\xc6\xec\x9cv?'
p214
tp215
Rp216
tp217
a(VGTGGTGAGGCTGGGTGAGAG
p218
g2
(g6
S'\x1b\xdd\xe83\x05\n\x8f?'
p219
tp220
Rp221
tp222
a(VTACGTGAGCATGTACATCCA
p223
g2
(g6
S'\xca\xedM\xc2;\xaf\xcb?'
p224
tp225
Rp226
tp227
a(VAGCCGTGGTAGCGGCGGTGG
p228
g2
(g6
S'\xb0)\x040mQ\xa3?'
p229
tp230
Rp231
tp232
a(VCGCGGCATAAACGGGAGAAG
p233
g2
(g6
S'\xce5\xa6\t\xd6V\xcf?'
p234
tp235
Rp236
tp237
a(VCTGCGTGTACTGCCTGGCCG
p238
g2
(g6
S'c\x80y\x05\xf8G\xe0?'
p239
tp240
Rp241
tp242
a(VTGGCACCAGATTGTAGTCAC
p243
g2
(g6
S'\xea,\x8fBM\x85\xb9?'
p244
tp245
Rp246
tp247
a(VGCGGGCGCTTCACGCTCTGG
p248
g2
(g6
S'\xe2\x9e|\xb4\x17\xd5\xc3?'
p249
tp250
Rp251
tp252
a(VTGTGGCTGAGCAGCAGCAGC
p253
g2
(g6
S'KN\xae\xa8\x0f\xc4\xa4?'
p254
tp255
Rp256
tp257
a(VGGTGTGGTCTGTCACGCGGT
p258
g2
(g6
S'\xea\xd1Bl*7\xc9?'
p259
tp260
Rp261
tp262
a(VTCGGTGCAGCGGAAGCGCAG
p263
g2
(g6
S'\xd4p"\xde`\x86\xcd?'
p264
tp265
Rp266
tp267
a(VGGTGAGAGGGGGCCTCCGCT
p268
g2
(g6
S'RoM\x87<l\xc2?'
p269
tp270
Rp271
tp272
a(VCATCACCTCTTGGGGAGTCC
p273
g2
(g6
S'\xe0-e \x9c\xbd\xbd?'
p274
tp275
Rp276
tp277
a(VCGGTGCAGCGGAAGCGCAGC
p278
g2
(g6
S'\xc9\x9c"\x18\xebA\xae?'
p279
tp280
Rp281
tp282
a(VTCCGCACGTACATGTCCACG
p283
g2
(g6
S'\x81Z\xe1\x9dI)\xda?'
p284
tp285
Rp286
tp287
a(VTAGTCTTCACAGTCACGTAG
p288
g2
(g6
S'\xc6]\x82(\x9f\xab\xd8?'
p289
tp290
Rp291
tp292
a(VGCGACTGGTCCAGCCGCCCT
p293
g2
(g6
S'M\nQ\x90hZ\xc4?'
p294
tp295
Rp296
tp297
a(VGCCCCCGCTGGACATCTCTG
p298
g2
(g6
S'A\xa0Y0\xf6\xc0\xda?'
p299
tp300
Rp301
tp302
a(VGGCCCGAGGCCGAGGGCGGC
p303
g2
(g6
S'\xf0\xa9\x1dw\xaayg?'
p304
tp305
Rp306
tp307
a(VTGTCCTGGCACTCGGTGCAG
p308
g2
(g6
S'\x85\x9bO\xc7\xaa\xfb\xe2?'
p309
tp310
Rp311
tp312
a(VTGGGGGCCCGAGGCCGAGGG
p313
g2
(g6
S'WA\xe6\xacJ`\xd2?'
p314
tp315
Rp316
tp317
a(VATCTGGTGCCAGCCTTCCTG
p318
g2
(g6
S'D\x05\x84_\xb55\xd4?'
p319
tp320
Rp321
tp322
a(VTTAAAGACCACCTCCAGAAG
p323
g2
(g6
S' Y\xee<Y\xf0\xe1?'
p324
tp325
Rp326
tp327
a(VGGAAGAGTCGGCAGAGTACG
p328
g2
(g6
S'\x93D\xbfN\x9b\x05\xe6?'
p329
tp330
Rp331
tp332
a(VAAGGAGAACAAAAACCTAGC
p333
g2
(g6
S'\x8f\x08\n\xdf\xa2#\xc6?'
p334
tp335
Rp336
tp337
a(VGAGTCCGGGAAGCACCAACG
p338
g2
(g6
S'\xb4T\xfa\xe3\x9f\x94\xb5?'
p339
tp340
Rp341
tp342
a(VGTGGTGGCCGATCTCGGCGC
p343
g2
(g6
S'\x8c\x97\x0e\xa0V\x86\xd1?'
p344
tp345
Rp346
tp347
a(VGGCCACCACCGCCGCTACCA
p348
g2
(g6
S'~\x1a\x8f\x03\xc3:\xc8?'
p349
tp350
Rp351
tp352
a(VTGTCCAGGTAGCTAGGAAGG
p353
g2
(g6
S'\x12\\B\xc4!\xa9\xe0?'
p354
tp355
Rp356
tp357
a(VGCTCCTGTCAGATCGCGAGA
p358
g2
(g6
S'\xeb\xc6\xfd?5\xfb\xe2?'
p359
tp360
Rp361
tp362
a(VAGTCTTCACAGTCACGTAGC
p363
g2
(g6
S'\xf9\x06\xd3\xee_\xf2\xbe?'
p364
tp365
Rp366
tp367
a(VGGGGGAAGATGGCGGAGCTG
p368
g2
(g6
S'\x87h\xcd\xbf\xf8J\xcc?'
p369
tp370
Rp371
tp372
a(VCCGCACGTACATGTCCACGT
p373
g2
(g6
S'\xd1\xca\xbd\xc0\xac\x10\xdd?'
p374
tp375
Rp376
tp377
a(VATCTCGTAATCATCCCGCAG
p378
g2
(g6
S'\x1b\xf3eb\xed\x11\xe2?'
p379
tp380
Rp381
tp382
a(VCTCTGGGGGCCCGAGGCCGA
p383
g2
(g6
S'\x0e\x1a\xe3\x8bB\x07\x99?'
p384
tp385
Rp386
tp387
a(VATTTCCTCACAGAAAGCGGC
p388
g2
(g6
S'Y8\xf5\xf39\xa6\xd9?'
p389
tp390
Rp391
tp392
a(VTTCACAGTCACGTAGCGGGC
p393
g2
(g6
S'\t\x8bi*\xb4A\xab?'
p394
tp395
Rp396
tp397
a(VCTGGCACCAGATTGTAGTCA
p398
g2
(g6
S'\xe5l\xf0t\x9d\xfc\xb3?'
p399
tp400
Rp401
tp402
a(VTTTGTCATCGTAGGAAGATA
p403
g2
(g6
S'k\x92\x01\x9b\xd1\xe1\xcd?'
p404
tp405
Rp406
tp407
a(VGGCCTCCGCTGGGACAGGTG
p408
g2
(g6
S'\xf7\x96e\x94\xd6\xfb\xa6?'
p409
tp410
Rp411
tp412
a(VTCGCGAGGAGCAGCTGCTGC
p413
g2
(g6
S'P\x937\xc5\x851\x9d?'
p414
tp415
Rp416
tp417
a(VGACCACACCTGTCCCAGCGG
p418
g2
(g6
S'm\xd5\xb5\xc3M\x10\xd0?'
p419
tp420
Rp421
tp422
a(VGGCTACCAGCTGGTGGACGG
p423
g2
(g6
S'\xdc\xe9H\xda\xff\xd3\xc3?'
p424
tp425
Rp426
tp427
a(VCATGTACATCCACGGGAACC
p428
g2
(g6
S']\x10\xa3}2\x1a\x8b?'
p429
tp430
Rp431
tp432
a(VAGGAGCTGCGCCTGAAGCTG
p433
g2
(g6
S"'\xf6\xc1\x13)6\xb7?"
p434
tp435
Rp436
tp437
a(VGCCTGGAAGGTTCTCAATGG
p438
g2
(g6
S'.#{\xd8\x99\xaf\xc6?'
p439
tp440
Rp441
tp442
a(VTCTTGGTGATCCCGTTTCGC
p443
g2
(g6
S'*\xacu^:\xd8\xdb?'
p444
tp445
Rp446
tp447
a(VGGCGGGCGCTTCACGCTCTG
p448
g2
(g6
S'z\xc9\xbd\xc8\x1d\x99\xa2?'
p449
tp450
Rp451
tp452
a(VCTCCTTTCCCCGTTTGGAGC
p453
g2
(g6
S'O\x87\x9c^,\x83\xab?'
p454
tp455
Rp456
tp457
a(VCGGCTCCAAACGGGGAAAGG
p458
g2
(g6
S'\x9b\xc1ch\n\xd7\xc5?'
p459
tp460
Rp461
tp462
a(VAGTCCGGGAAGCACCAACGT
p463
g2
(g6
S'\xf4x\x87\xffg\x99\xdb?'
p464
tp465
Rp466
tp467
a(VAGGCCTTCCCCAGGTTCCCG
p468
g2
(g6
S'\xe6\xc9|\xda\xbd\xc9\xde?'
p469
tp470
Rp471
tp472
a(VCAGAAAGCGGCTGGATCTCC
p473
g2
(g6
S'`\x86R\xbd-?u?'
p474
tp475
Rp476
tp477
a(VGAAGCGCAGCGGGCTCACCT
p478
g2
(g6
S'\xc8\xb7\x0f*\x85\x01\xce?'
p479
tp480
Rp481
tp482
a(VCTTCTTGTCCTTCCCCAGGA
p483
g2
(g6
S'\x17\x1e\x82J_\xff\xd2?'
p484
tp485
Rp486
tp487
a(VCCATCACCTCTTGGGGAGTC
p488
g2
(g6
S'\x9b\xa9\xe5\x0eh\xd7\x91?'
p489
tp490
Rp491
tp492
a(VGCTGAAGCGCAAGATCACCA
p493
g2
(g6
S"\xb9'\xdd\xd0s/\xe6?"
p494
tp495
Rp496
tp497
a(VCTTTGTCCAGGTAGCTAGGA
p498
g2
(g6
S"\x1f\xde\xef'\x956\xb6?"
p499
tp500
Rp501
tp502
a(VCAGCCACAGAGATGTCCAGC
p503
g2
(g6
S'p\xf9p\x12H\xde\xb2?'
p504
tp505
Rp506
tp507
a(VAGCTGGGCTACATGCCGCTG
p508
g2
(g6
S'\xd32\x82(\xc0\xf9\xae?'
p509
tp510
Rp511
tp512
a(VGCTGGTAGCCGTGGTAGCGG
p513
g2
(g6
S'\xa1OD\xbc\xfe?\xe6?'
p514
tp515
Rp516
tp517
a(VCGAGCTGAAGCGCGCCCACG
p518
g2
(g6
S'\xbb\x8b\xcabo\x9d\xbf?'
p519
tp520
Rp521
tp522
a(VCTACCACGGCTACCAGCTGG
p523
g2
(g6
S'\xf0\xed|\x90|\xdd\xc8?'
p524
tp525
Rp526
tp527
a(VGTGTGGTCTGTCACGCGGTT
p528
g2
(g6
S'\x1b\x1amZ\xcb\x92\xa9?'
p529
tp530
Rp531
tp532
a(VGCTGGGCTACATGCCGCTGC
p533
g2
(g6
S'\xd8\x8d\xe6\xe4\x1f\x9f\xc7?'
p534
tp535
Rp536
tp537
a(VGAAGCCTGGAAGGTTCTCAA
p538
g2
(g6
S'\xeb.]|b\x01\xbc?'
p539
tp540
Rp541
tp542
a(VAGCGCCCGCCGTCCACCAGC
p543
g2
(g6
S'V\x05h0M^\xc7?'
p544
tp545
Rp546
tp547
a(VATGTACATCCACGGGAACCT
p548
g2
(g6
S'N&\xcc\x86\xc5@\xcd?'
p549
tp550
Rp551
tp552
a(VACAGGAGCTCGAAGCCTGGA
p553
g2
(g6
S'B-\xb2\x0fE\xb0\xd0?'
p554
tp555
Rp556
tp557
a(VCGCCGGCCGAGAAGCACTCG
p558
g2
(g6
S'\x1b\xc3\xbf\xafa\xeb\xb4?'
p559
tp560
Rp561
tp562
a(VTGCCCCGAGTGCTTCTCGGC
p563
g2
(g6
S'\xc6\xd6\xa3\xd8 ?\xc0?'
p564
tp565
Rp566
tp567
a(VCAGCAGCTGCTCCTCGCGAC
p568
g2
(g6
S'\xea\xb4\x10\x12\xd9o\xaa?'
p569
tp570
Rp571
tp572
a(VTTGAATTTCCTCACAGAAAG
p573
g2
(g6
S'\x813\x7f\xec\xf8\xe6\xe5?'
p574
tp575
Rp576
tp577
a(VCCAGCTGGTAGCCGTGGTAG
p578
g2
(g6
S'LAhQ`\xe0\xd5?'
p579
tp580
Rp581
tp582
a(VGCGGGGGAAGATGGCGGAGC
p583
g2
(g6
S'\n\xef3\xad\x9b\xf2\x83?'
p584
tp585
Rp586
tp587
a(VCTTCCTGGGGAAGGACAAGA
p588
g2
(g6
S'\xbbFhWc\x81\xbf?'
p589
tp590
Rp591
tp592
a(VGCGCCGGCCGAGAAGCACTC
p593
g2
(g6
S'B\x83\xe2\x01DE\xd3?'
p594
tp595
Rp596
tp597
a(VGCGAAACGGGATCACCAAGA
p598
g2
(g6
S'\xe3\xe7@\x88\xc4:\xd1?'
p599
tp600
Rp601
tp602
a(VCACGGCTACCAGCTGGTGGA
p603
g2
(g6
S'\x0c\xd8W\x1c\xa3\xfc\xb2?'
p604
tp605
Rp606
tp607
a(VGGTAGCCGTGGTAGCGGCGG
p608
g2
(g6
S'\x156k?\x05\xff\xc3?'
p609
tp610
Rp611
tp612
a(VTGTGGTCTGTCACGCGGTTG
p613
g2
(g6
S'\xf4\x80\xe9\x1cRx\xc8?'
p614
tp615
Rp616
tp617
a(VTTGTCCTTCCCCAGGAAGGC
p618
g2
(g6
S'\x8b%\xa5\xd3\xcc\xb0\xc2?'
p619
tp620
Rp621
tp622
a(VCCGGACTCCCCAAGAGGTGA
p623
g2
(g6
S'9\xe6:b4\xf8\xbb?'
p624
tp625
Rp626
tp627
a(VGGCGCCGGCCGAGAAGCACT
p628
g2
(g6
S'\xaf\x97\xa1O\xb6\x91\xc0?'
p629
tp630
Rp631
tp632
a(VGAGGGGGCCTCCGCTGGGAC
p633
g2
(g6
S'\xff\xb5\xa0\x1d\x8e\xb3\xa2?'
p634
tp635
Rp636
tp637
a(VCGGCAGAGTACGAGGCAGCG
p638
g2
(g6
S'\xbb\xf5\xb3\xbb\xb4\x8f\xe3?'
p639
tp640
Rp641
tp642
a(VGATCACCAAGATGGAAGAGT
p643
g2
(g6
S'\xab\xb4\xb3R\x82\xfa\xe1?'
p644
tp645
Rp646
tp647
a(VGACCACCTCCAGAAGCGGCA
p648
g2
(g6
S'Zi\xb2|\xe6\xf7\xce?'
p649
tp650
Rp651
tp652
a(VCAGCTCGATGTCCTGGCACT
p653
g2
(g6
S'U\xe3+\xd5\x93f\xbb?'
p654
tp655
Rp656
tp657
a(VAGCAGTTCGGCTTCGGAAAC
p658
g2
(g6
S"\xc3\xba\xcb'&\xcd\x89?"
p659
tp660
Rp661
tp662
a(VGTCTGTCACGCGGTTGGGGA
p663
g2
(g6
S'J\x01\x8d\xc5{}\x9d?'
p664
tp665
Rp666
tp667
a(VGCACAAAGAAAAAATGCTCC
p668
g2
(g6
S'\xee%\xff&#M\xbd?'
p669
tp670
Rp671
tp672
a(VGGTGGTGAGGCTGGGTGAGA
p673
g2
(g6
S'\xe2G\xf0\x17\x97\xd0\xa6?'
p674
tp675
Rp676
tp677
a(VTCCGAGAACTGCAGCGGTAC
p678
g2
(g6
S'y\x81\xe0\x91{1\xaa?'
p679
tp680
Rp681
tp682
a(VGAAGTACTGCGTGTACTGCC
p683
g2
(g6
S'~R\x04pg\xea\xba?'
p684
tp685
Rp686
tp687
a(VGCGGGGGCAGCGGGGTGGTG
p688
g2
(g6
S'\x01\x16\xceu\xe7w\xa3?'
p689
tp690
Rp691
tp692
a(VCAACTATGATGACGACGACG
p693
g2
(g6
S'\xe4\x89KN ~\xda?'
p694
tp695
Rp696
tp697
a(VGGGTGAGAGGGGGCCTCCGC
p698
g2
(g6
S'\x1b\x874\tb\xc9\x86?'
p699
tp700
Rp701
tp702
a(VAACCTAGCCGGCTCCAAACG
p703
g2
(g6
S'\x0b\x17\xf9\xc2R\xa7\xd6?'
p704
tp705
Rp706
tp707
a(VGCCATCGAGCAGTTCGGCTT
p708
g2
(g6
S'\x1c\xd1\xaf@\x03\xd0\xbb?'
p709
tp710
Rp711
tp712
a(VACGCGGTTGGGGATGGTGTC
p713
g2
(g6
S'\x99\xdb\x1dOT\x01z?'
p714
tp715
Rp716
tp717
a(VCACGCGGTTGGGGATGGTGT
p718
g2
(g6
S'\x9eT\xbc\x10\xf9\xce\xb0?'
p719
tp720
Rp721
tp722
a(VCGAGGCAGCGCGGCATAAAC
p723
g2
(g6
S'\xc29 \x92\xec\xd4\xad?'
p724
tp725
Rp726
tp727
a(VCGCGGTTGGGGATGGTGTCG
p728
g2
(g6
S'X\xb7\xbekw\xdf\x92?'
p729
tp730
Rp731
tp732
a(VCTTCCGCTGCACCGAGTGCC
p733
g2
(g6
S'\xef\xe0\xd6\xc6\xa0_\xb2?'
p734
tp735
Rp736
tp737
a(VAGAAAGCGGCTGGATCTCCA
p738
g2
(g6
S'\xbe\xa54L\x81M\xd8?'
p739
tp740
Rp741
tp742
a(VGGGTGGTGAGGCTGGGTGAG
p743
g2
(g6
S'\x9dFK\xffA\r\x93?'
p744
tp745
Rp746
tp747
a(VTGGACAAAGTCCTAAAGAAA
p748
g2
(g6
S'\xf3\x0e\xe83=\xb4\xc0?'
p749
tp750
Rp751
tp752
a(VTTACGAGATCGAGTATGACC
p753
g2
(g6
S'm\xe2!\xe2\x9f\xff\xd7?'
p754
tp755
Rp756
tp757
a(VCACCACCCCGCTGCCCCCGC
p758
g2
(g6
S'\x17\xe4C]_|\x95?'
p759
tp760
Rp761
tp762
a(VGGACAAGAAGGAGAAGGAAA
p763
g2
(g6
S'\x95\x10j\x8e\xc5\x99\xc3?'
p764
tp765
Rp766
tp767
a(VGAGATGTCCAGCGGGGGCAG
p768
g2
(g6
S'"\xce\xe1_\xa6\x1b\xc8?'
p769
tp770
Rp771
tp772
a(VGTAGCTAGGAAGGCGGCTTT
p773
g2
(g6
S'D\x08\xaeCL\xc1\x86?'
p774
tp775
Rp776
tp777
a(VTTCCTTGCCGCTTCTGGAGG
p778
g2
(g6
S'a\x84\xbbv\x13\xc3\xaa?'
p779
tp780
Rp781
tp782
a(VTTCCCCGTTTGGAGCCGGCT
p783
g2
(g6
S'\xb2`\xa8\xe4\x18\xa0\xa1?'
p784
tp785
Rp786
tp787
a(VAGGGGATTCCTTGCCGCTTC
p788
g2
(g6
S'&N\xaf\x13\xe5r~?'
p789
tp790
Rp791
tp792
a(VGCTCTGGGGGCCCGAGGCCG
p793
g2
(g6
S'M%\xe5\xe9\xba\xc2\xad?'
p794
tp795
Rp796
tp797
a(VAAACCTAGCCGGCTCCAAAC
p798
g2
(g6
S' \x13!\\\x9eZ\xae?'
p799
tp800
Rp801
tp802
a(VGGTCCAGCCGCCCTCGGCCT
p803
g2
(g6
S'\xc3:jY\xb2\xbb\xb7?'
p804
tp805
Rp806
tp807
a(VCAAGATCACCAAGGAGGAGA
p808
g2
(g6
S'N\xea\x1f\xd2\xdc\xfb\xab?'
p809
tp810
Rp811
tp812
a(VTGCACAAAGAAAAAATGCTC
p813
g2
(g6
S'~\xa0r\xd2O\xc6\xb5?'
p814
tp815
Rp816
tp817
a(VCTCTGCCGACTCTTCCATCT
p818
g2
(g6
S'1\xccgK\xe6\xf0\x82?'
p819
tp820
Rp821
tp822
a(VAAGCCGCCTTCCTAGCTACC
p823
g2
(g6
S'1\xcc\xb8\x92\xe5p\xbb?'
p824
tp825
Rp826
tp827
a(VAGGACTTTGTCCAGGTAGCT
p828
g2
(g6
S'\xb6\x1bu[\xbf\xac\xcd?'
p829
tp830
Rp831
tp832
a(VTCAGCTTCAAGACGCGTCCC
p833
g2
(g6
S'h\x8d\x90mX\xd4\xa1?'
p834
tp835
Rp836
tp837
a(VGCCGCCATTGAGAACCTTCC
p838
g2
(g6
S'\xa1\x8aP\xa9he\xae?'
p839
tp840
Rp841
tp842
a(VGGGCAGCGGGGTGGTGAGGC
p843
g2
(g6
S'\x88\xcd\x88Q^\xcbn?'
p844
tp845
Rp846
tp847
a(VGCGCAGCTCCTTCTCCTCCT
p848
g2
(g6
S'Kt$\x04\x9c\xbf\xc9?'
p849
tp850
Rp851
tp852
a(VGGTACAGCGGCCTCAGCTTC
p853
g2
(g6
S'\x16jiH\xbe\r\x9f?'
p854
tp855
Rp856
tp857
a(VTGCAGCGGTACCGGCGAAAC
p858
g2
(g6
S'b\x01\x8b}{7\x95?'
p859
tp860
Rp861
tp862
a(VGTAATGCTCCATCACCTCTT
p863
g2
(g6
S"E\xad\xdd4\x85'\xd3?"
p864
tp865
Rp866
tp867
a(VCGGCGGGCGCTTCACGCTCT
p868
g2
(g6
S'\xdc3\xed\x90\xd2\xd4q?'
p869
tp870
Rp871
tp872
a(VCGGGGATGCAGGCCTTCCCC
p873
g2
(g6
S'\x01T\x80\x0eD-\xb4?'
p874
tp875
Rp876
tp877
a(VTCTGACAGGAGCTCGAAGCC
p878
g2
(g6
S'B|`\xc7\x7f\x81\xb2?'
p879
tp880
Rp881
tp882
a(VGGGGATGGTGTCGGGGATGC
p883
g2
(g6
S'\x88\x85\xed6\x8e\xa9r?'
p884
tp885
Rp886
tp887
a(VAGCCGGCTCCAAACGGGGAA
p888
g2
(g6
S'\xe7\xa8,\xd5\xc8X\xb5?'
p889
tp890
Rp891
tp892
a(VTTCTCGGCCGGCGCCGAGAT
p893
g2
(g6
S'\x99l\xbdXx\x14\xb4?'
p894
tp895
Rp896
tp897
a(VCGTAATGCTCCATCACCTCT
p898
g2
(g6
S'\xd2\x89\xd4\x19\xb7\xcf\xbb?'
p899
tp900
Rp901
tp902
a(VGCTGTGCCCCGAGTGCTTCT
p903
g2
(g6
S"\x05\x05'\xa0^\xd0\xd2?"
p904
tp905
Rp906
tp907
a(VGCCGTCCTCCTTTCCCCGTT
p908
g2
(g6
S'\xe9=L\xfd\xe7\xa9\xcb?'
p909
tp910
Rp911
tp912
a(VAATCTGGTGCCAGCCTTCCT
p913
g2
(g6
S'H\xd3}Y\n\xe3\xb5?'
p914
tp915
Rp916
tp917
a(VCCGCTGCAGTTCTCGGATCT
p918
g2
(g6
S'\xd5\x9b\xf3\x81T\xf2`?'
p919
tp920
Rp921
tp922
a(VCTGCAGCGGTACCGGCGAAA
p923
g2
(g6
S'\x19:\xc7\x97\x88k\x94?'
p924
tp925
Rp926
tp927
a(VAAAACCTAGCCGGCTCCAAA
p928
g2
(g6
S'\xfa\x1ee,\xe9T\xdf?'
p929
tp930
Rp931
tp932
a(VACGAGGCAGCGCGGCATAAA
p933
g2
(g6
S"\xce\x12\x04\x92'>\xc2?"
p934
tp935
Rp936
tp937
a(VCAATCTGGTGCCAGCCTTCC
p938
g2
(g6
S'\xfc\x80\xe4\xf6\xfb`a?'
p939
tp940
Rp941
tp942
a(VCTGCCCACGTTGGTGCTTCC
p943
g2
(g6
S'@R\xbb\x94\xf7\xc7\xad?'
p944
tp945
Rp946
tp947
a(VACTCCTTGCATGACATGAAC
p948
g2
(g6
S'j\xed\xc77%\xea\xc1?'
p949
tp950
Rp951
tp952
a.