(lp0
(VCAGCGCTTGGCAGCCAAGGA
p1
cnumpy.core.multiarray
scalar
p2
(cnumpy
dtype
p3
(S'f8'
p4
I0
I1
tp5
Rp6
(I3
S'<'
p7
NNNI-1
I-1
I0
tp8
bS'\xb4\xa7\xcb\xff78\xb5?'
p9
tp10
Rp11
tp12
a(VCAGCCTCAAAATCCTCTCTC
p13
g2
(g6
S'\xde\xb4\x83\x8b\xc1\xb5\xb0?'
p14
tp15
Rp16
tp17
a(VGAACTTAAGCGAGGCCCTGG
p18
g2
(g6
S'n\x1d+\x17{\xc6\xbb?'
p19
tp20
Rp21
tp22
a(VGGCCAAGAAGAACTTAAGCG
p23
g2
(g6
S'\x08\xea;\x8f\xef\x9a\xe8?'
p24
tp25
Rp26
tp27
a(VATTCTTCAGGTATGGCTGCG
p28
g2
(g6
S'\x13\x91\x01\xa3B*\xde?'
p29
tp30
Rp31
tp32
a(VAAAAGATCGTACATGTTCAC
p33
g2
(g6
S'\xd04\xec\xedR\x07\xcc?'
p34
tp35
Rp36
tp37
a(VAGCAAAACCTGGAAAACCCA
p38
g2
(g6
S'~s\xaf.\xcf\x8c\xc7?'
p39
tp40
Rp41
tp42
a(VTAGTGACTGCTTATGAGCAT
p43
g2
(g6
S'G\x94h\\G\x8b\xe0?'
p44
tp45
Rp46
tp47
a(VCTGTTTCACGTTGTCCCCCA
p48
g2
(g6
S'\xfb\xfc\xe3\xfc\xce(\xdb?'
p49
tp50
Rp51
tp52
a(VACTGGGCTAACCTAAAGCTG
p53
g2
(g6
S'O1\xab\xd0p%\xe4?'
p54
tp55
Rp56
tp57
a(VGAGCATAGACAGTATGTGTA
p58
g2
(g6
S"u'\xf6\xd5\xf7\x0f\xd8?"
p59
tp60
Rp61
tp62
a(VAACGCGTGAGAATGGCCAGG
p63
g2
(g6
S'\x9a\xdau\x16\x8dZ\xd6?'
p64
tp65
Rp66
tp67
a(VCTATCATTCTCCCTTCAAGC
p68
g2
(g6
S'\x1e(\x8f%\xae\xde\xe2?'
p69
tp70
Rp71
tp72
a(VTTCAGCTGTTGTCTATGCTG
p73
g2
(g6
S'\xd5\x96\xb1\xd6\x8d\r\xc3?'
p74
tp75
Rp76
tp77
a(VAGATCGTACATGTTCACCGG
p78
g2
(g6
S'\x9b\x0c6\x91s\xe4\xd7?'
p79
tp80
Rp81
tp82
a(VTGGGCTGGACAATGTCACCG
p83
g2
(g6
S'\x9d\xe4y6\xcc\xec\xdc?'
p84
tp85
Rp86
tp87
a(VGCTGGACAATGTCACCGAGG
p88
g2
(g6
S'D\x9c|\xea\xc0H\xdb?'
p89
tp90
Rp91
tp92
a(VGTTGTCTATGCTGTGGAGGT
p93
g2
(g6
S'\xf9\x85a\x04\xb0\xa8\xb4?'
p94
tp95
Rp96
tp97
a(VGATGACTTCCCTGTGCACCT
p98
g2
(g6
S'\xbbf\xf7\x86\xf0\xdf\xe3?'
p99
tp100
Rp101
tp102
a(VGCTGGATTCTGACCAGCACA
p103
g2
(g6
S'T*\xe8\xc3\xa1q\xe9?'
p104
tp105
Rp106
tp107
a(VAATTGCTGGGCTCCTGAGAG
p108
g2
(g6
S'\xaa\xa1\x84\xce\xa8O\xb0?'
p109
tp110
Rp111
tp112
a(VCAAGCAGAAGATCAGCAAAG
p113
g2
(g6
S'p`\xe4\xf8\xb0\xbd\xcb?'
p114
tp115
Rp116
tp117
a(VGACAACGCGTGAGAATGGCC
p118
g2
(g6
S'z\xd4\xae\xf5\x84&\xc1?'
p119
tp120
Rp121
tp122
a(VACTACACTATTCTTCAGGTA
p123
g2
(g6
S'!\x15\x9eN\xb4\x16\xcc?'
p124
tp125
Rp126
tp127
a(VAATCTGACAACGCGTGAGAA
p128
g2
(g6
S'\xc4\xeb\x8di\x8cg\xc5?'
p129
tp130
Rp131
tp132
a(VAAAGCTTATCGGTTACGAGA
p133
g2
(g6
S'q\xa6\x83\xa1\x80@\xc4?'
p134
tp135
Rp136
tp137
a(VAGAGCATAGACAGTATGTGT
p138
g2
(g6
S'\xcb\x89\xcc\x15\x0bg\xc2?'
p139
tp140
Rp141
tp142
a(VGGCGACCTTTGTGAGCGAGC
p143
g2
(g6
S'\x19v"\x05r0\x95?'
p144
tp145
Rp146
tp147
a(VAGAACTTAAGCGAGGCCCTG
p148
g2
(g6
S'\xf0g\xf2y7\xa9\xc4?'
p149
tp150
Rp151
tp152
a(VCTATTCTTCAGGTATGGCTG
p153
g2
(g6
S'\xe0"\xf0\xba\x90\xf4\xe6?'
p154
tp155
Rp156
tp157
a(VAGCTCATAGACTTCTCACAC
p158
g2
(g6
S'\x104\xd6f\xb2+\xc7?'
p159
tp160
Rp161
tp162
a(VGCACTCCTGCTGGCATGCTC
p163
g2
(g6
S'y\xd9#\x92\xf0\x96\xd3?'
p164
tp165
Rp166
tp167
a(VGAAGAACTTAAGCGAGGCCC
p168
g2
(g6
S'\rZ\x1fA\xb7\xb8\x98?'
p169
tp170
Rp171
tp172
a(VAGACTTCTCACACAGGATAA
p173
g2
(g6
S'b\xcd.\x03\xc1\xa8\xcd?'
p174
tp175
Rp176
tp177
a(VACTGTTTCACGTTGTCCCCC
p178
g2
(g6
S'Z\xb2\xe6\xa4P\xc6\xbf?'
p179
tp180
Rp181
tp182
a(VTTCTCACAATGATTTCCTCC
p183
g2
(g6
S'=m\xd1%\xc3A\xb3?'
p184
tp185
Rp186
tp187
a(VGCAGCAGGCTGCACTCCTGC
p188
g2
(g6
S'\x97\xfe\x04\x9bc\x8e\xd7?'
p189
tp190
Rp191
tp192
a(VCAGGGAGCAGTAAAAGCTGG
p193
g2
(g6
S'\xa2\xe1 c\xe6)\xc2?'
p194
tp195
Rp196
tp197
a(VCTGCTGCTCAGCATCATCAG
p198
g2
(g6
S'x\xe3\x19>fc\xda?'
p199
tp200
Rp201
tp202
a(VATAGTGACTGCTTATGAGCA
p203
g2
(g6
S'\xa7\xd3\xeaF\x80\x9c\xc5?'
p204
tp205
Rp206
tp207
a(VAAGAACTTAAGCGAGGCCCT
p208
g2
(g6
S'\xd9\xa6\xc2\xe9nh\xb8?'
p209
tp210
Rp211
tp212
a(VTCTACCTGCATCTTTGCCTC
p213
g2
(g6
S'\xef\xebFs\xf2\xcf\xce?'
p214
tp215
Rp216
tp217
a(VAGTGGGAAGCATCATTGTGT
p218
g2
(g6
S'\xb2|\xe6w]I\xd0?'
p219
tp220
Rp221
tp222
a(VTGCTGCTCAGCATCATCAGG
p223
g2
(g6
S'\xa0%\x9f\x89vV\xd4?'
p224
tp225
Rp226
tp227
a(VTCTGCTTGAACCACAGCTTT
p228
g2
(g6
S'\xcb/g\xdc\xf2\xd6\xc4?'
p229
tp230
Rp231
tp232
a(VGAGTGGGAAGCATCATTGTG
p233
g2
(g6
S'\xedD\xdc\xabu3\xb6?'
p234
tp235
Rp236
tp237
a(VAACAGCTGAAACAGCCTCCT
p238
g2
(g6
S'"\xcdv\x8a\xf7\x11\xbe?'
p239
tp240
Rp241
tp242
a(VGACCTTTGTGAGCGAGCTGG
p243
g2
(g6
S'<\x1fz_P7\xcb?'
p244
tp245
Rp246
tp247
a(VACAATGATGCTTCCCACTCG
p248
g2
(g6
S'Pxi\xc0\xa9Z\xc5?'
p249
tp250
Rp251
tp252
a(VAGGGAGCAGTAAAAGCTGGA
p253
g2
(g6
S'[\xc8\n\x1b\xf1\xc6\xe1?'
p254
tp255
Rp256
tp257
a(VCGCCTCCAGCTCGCTCACAA
p258
g2
(g6
S'a\xa4\xec4\x9f!\xc5?'
p259
tp260
Rp261
tp262
a(VTTCACCGGAGGCAAAGATGC
p263
g2
(g6
S'\x02\x13\t\xbd6\x0f\xc8?'
p264
tp265
Rp266
tp267
a(VTGCTGCAGCTCTTCATGATT
p268
g2
(g6
S'4f\xa5XT\x15\xad?'
p269
tp270
Rp271
tp272
a(VTTCTGTCTCCTAGATGGTGC
p273
g2
(g6
S'v\xe33\x92j\xc3\xc2?'
p274
tp275
Rp276
tp277
a(VGGCCTCGCTTAAGTTCTTCT
p278
g2
(g6
S'\xad\x90\xc9\x149\xe5\xb4?'
p279
tp280
Rp281
tp282
a(VGGATCTTTGCCTTGGCCAGG
p283
g2
(g6
S'\xe78z\xa6\xdeM\xde?'
p284
tp285
Rp286
tp287
a(VATGGTGCTGGATCTTTGCCT
p288
g2
(g6
S"'\x1b\xf8\x19c\x9c\xc1?"
p289
tp290
Rp291
tp292
a(VGTTTCTGCCTCTGCAGATAC
p293
g2
(g6
S'-\x19]dV}\xab?'
p294
tp295
Rp296
tp297
a(VTGTCTCCGGAGCATGCCAGC
p298
g2
(g6
S'~\x84\x06\x07 \xda\xb6?'
p299
tp300
Rp301
tp302
a(VCCTGCTGCTCAGCATCATCA
p303
g2
(g6
S'\xe4\x13$I\x1f\x99\xce?'
p304
tp305
Rp306
tp307
a(VGCACAGGGAGCAGTAAAAGC
p308
g2
(g6
S'\xa5\x88\x8d+\x8e\x80\xd6?'
p309
tp310
Rp311
tp312
a(VGCAAAGATCCAGCACCATCT
p313
g2
(g6
S'\x00\x8d\xd7^9\xb2\xc5?'
p314
tp315
Rp316
tp317
a(VGTTTCAAGTCGTCATCATCT
p318
g2
(g6
S"\xe0\xdc'\x93\x8f\xe7\xa0?"
p319
tp320
Rp321
tp322
a(VTATTCTTCAGGTATGGCTGC
p323
g2
(g6
S'D>\xc4\x135)\xa1?'
p324
tp325
Rp326
tp327
a(VGGGGGTTCCGCAGCAAAACC
p328
g2
(g6
S'\xd0\x9f\xf9F\xbb$\xb8?'
p329
tp330
Rp331
tp332
a(VAGCTGGATTCTGACCAGCAC
p333
g2
(g6
S'V\xe6\x85\xf2@\x8f\xb2?'
p334
tp335
Rp336
tp337
a(VGCAAAACCTGGAAAACCCAA
p338
g2
(g6
S'(\xe7\x93.`v\xee?'
p339
tp340
Rp341
tp342
a(VTGCTCAGCATCATCAGGGGG
p343
g2
(g6
S'\xfe\x02\xbbF=W\xc3?'
p344
tp345
Rp346
tp347
a(VCTTACAACAACTTAATAGAA
p348
g2
(g6
S'J)\xb0L4\x12\xc6?'
p349
tp350
Rp351
tp352
a(VCTTTGTGAGCGAGCTGGAGG
p353
g2
(g6
S'\x14\xd9v\xf6o\xc0\xc6?'
p354
tp355
Rp356
tp357
a(VGCTGCGGAACCCCCTGGCCA
p358
g2
(g6
S'\n<7:\xd5\x84\xcc?'
p359
tp360
Rp361
tp362
a(VCCTTCAAGCTGGCCTCGAGT
p363
g2
(g6
S'\xef\x07\x9209\x99\xd9?'
p364
tp365
Rp366
tp367
a(VGTTCGTCAGAAATTTGATGT
p368
g2
(g6
S'\xa0\x80~\xc3j\xea\xd6?'
p369
tp370
Rp371
tp372
a(VAGCGCTTGGCAGCCAAGGAG
p373
g2
(g6
S'XoXCw\x03\xb3?'
p374
tp375
Rp376
tp377
a(VGACTGCTTATGAGCATGGGC
p378
g2
(g6
S'\xf7\xd4\xc6\xe53\xb1\xc4?'
p379
tp380
Rp381
tp382
a(VTGGATCTTTGCCTTGGCCAG
p383
g2
(g6
S'\xef\xa6\x05v\xcf\x96\xae?'
p384
tp385
Rp386
tp387
a(VTGAGAAGTCTATGAGCTTCA
p388
g2
(g6
S'\xa4\t\xe6x\x9d\xbe\xaa?'
p389
tp390
Rp391
tp392
a(VGCTCAGCATCATCAGGGGGT
p393
g2
(g6
S'\xd8\xa62>,\x11\xc7?'
p394
tp395
Rp396
tp397
a(VAAGCTACTACACTATTCTTC
p398
g2
(g6
S'nh\x0ck\x11\xee\xbf?'
p399
tp400
Rp401
tp402
a(VTTCAAGTCGTCATCATCTTG
p403
g2
(g6
S':G\x1f\x1e\x82\x9d\xc5?'
p404
tp405
Rp406
tp407
a(VCCCTTCAAGCTGGCCTCGAG
p408
g2
(g6
S'\xed\xf8\xf2\xac\xeb\xea\xb0?'
p409
tp410
Rp411
tp412
a(VCTGGATCTTTGCCTTGGCCA
p413
g2
(g6
S'\x14<\xed?\x1e\xb9\xb7?'
p414
tp415
Rp416
tp417
a(VTGACGTCAGTTGTGTCAAGA
p418
g2
(g6
S'C\x8e\x87\xa0e;\xb6?'
p419
tp420
Rp421
tp422
a(VAGATGCAGGTAGAGTGTCTC
p423
g2
(g6
S'\x0f\xb9\xb1\x8aK\x16\xa1?'
p424
tp425
Rp426
tp427
a(VCCCTGATGATGCTGAGCAGC
p428
g2
(g6
S'\x8d(>U\xbd\xb0\xa9?'
p429
tp430
Rp431
tp432
a(VCCTTGGCTGCCAAGCGCTGG
p433
g2
(g6
S'Y\xd6\xc3\xb8\x97k\xd5?'
p434
tp435
Rp436
tp437
a(VTCTATGCTCTTAACATTGAA
p438
g2
(g6
S'\xba\x1f\xfc3\x9f\r\xdc?'
p439
tp440
Rp441
tp442
a(VGCACAGCAAAAGCCCCTCCT
p443
g2
(g6
S'^B8x\xbc\xcf\xcb?'
p444
tp445
Rp446
tp447
a(VCGGGGTCACGTTACTGCCAA
p448
g2
(g6
S'`\x12\xc4\xffqP\xaa?'
p449
tp450
Rp451
tp452
a(VCTCAGGAGCCCAGCAATTTG
p453
g2
(g6
S'\xb1\xcf\x1a\xbe\xb0u\xbd?'
p454
tp455
Rp456
tp457
a(VAAAGGATCATCACGAAACTC
p458
g2
(g6
S'x\xc3\xb3\x8d\n\xdf\xb5?'
p459
tp460
Rp461
tp462
a(VCCCACTCGAGGCCAGCTTGA
p463
g2
(g6
S'\x1f\xa7\xdb\x1e,\xff\xb2?'
p464
tp465
Rp466
tp467
a(VATCCTTTGCCACAAATTGCT
p468
g2
(g6
S'7\x1ev#Oy\xc6?'
p469
tp470
Rp471
tp472
a(VTTTCAAGTCGTCATCATCTT
p473
g2
(g6
S'\xbf\xa72\xbf\xac\xe6\xb5?'
p474
tp475
Rp476
tp477
a(VGGATGACTTCCCTGTGCACC
p478
g2
(g6
S'0C7\x89\xae\xfc\x87?'
p479
tp480
Rp481
tp482
a(VAGCCCAGCAATTTGTGGCAA
p483
g2
(g6
S'}\x98\xe8\xec\x97a\xb1?'
p484
tp485
Rp486
tp487
a(VCCTCCTTGGCTGCCAAGCGC
p488
g2
(g6
S'\xa5\xe0\xb4\xd6\xd3\xeb\xa3?'
p489
tp490
Rp491
tp492
a(VCCGCCAGCGCTTGGCAGCCA
p493
g2
(g6
S'\xa0\xd2\xac_\xf5\xef\xac?'
p494
tp495
Rp496
tp497
a(VGCTGGATCTTTGCCTTGGCC
p498
g2
(g6
S'\x80\xb6\x84e4>\xb2?'
p499
tp500
Rp501
tp502
a(VTGTCAAGAAGGAAAGCTTAT
p503
g2
(g6
S'=0\x99\x8dB\xf0\xda?'
p504
tp505
Rp506
tp507
a(VCCACTCGAGGCCAGCTTGAA
p508
g2
(g6
S'\xf6\xc0\\\xc5\xc1\xa9\xbe?'
p509
tp510
Rp511
tp512
a(VCCAGCGCTTGGCAGCCAAGG
p513
g2
(g6
S'\x13\x81\x9e\x91\xfe\x1a\xb6?'
p514
tp515
Rp516
tp517
a(VGCCTGCTGCTCAGCATCATC
p518
g2
(g6
S'F\x06\xdfR\xd3\xd0\xa9?'
p519
tp520
Rp521
tp522
a(VTTTCTGCCTCTGCAGATACT
p523
g2
(g6
S'p\xdf\xd58\xbc<\xd7?'
p524
tp525
Rp526
tp527
a(VGGAGGAAATCATTGTGAGAA
p528
g2
(g6
S'\xfeI\x1e}\x03{\xb2?'
p529
tp530
Rp531
tp532
a(VCAAAGTTCACCGCCAGCGCT
p533
g2
(g6
S'V\xa8.\x13W\xeb\xc0?'
p534
tp535
Rp536
tp537
a(VGATCCTTTGCCACAAATTGC
p538
g2
(g6
S'\xe7\x05\x7f\x8f_\x97\xc0?'
p539
tp540
Rp541
tp542
a(VCTGACGTCAGTATATCTTTA
p543
g2
(g6
S'\xd5\xfe\xbf\xcb\xbbS\xb7?'
p544
tp545
Rp546
tp547
a.